
dnsmasq_binary:     file format elf64-x86-64


Disassembly of section .init:

0000000000005de8 <_init>:
    5de8:	48 83 ec 08          	sub    $0x8,%rsp
    5dec:	48 8b 05 e5 71 24 00 	mov    0x2471e5(%rip),%rax        # 24cfd8 <__gmon_start__>
    5df3:	48 85 c0             	test   %rax,%rax
    5df6:	74 02                	je     5dfa <_init+0x12>
    5df8:	ff d0                	callq  *%rax
    5dfa:	48 83 c4 08          	add    $0x8,%rsp
    5dfe:	c3                   	retq   

Disassembly of section .plt:

0000000000005e00 <.plt>:
    5e00:	ff 35 62 6d 24 00    	pushq  0x246d62(%rip)        # 24cb68 <_GLOBAL_OFFSET_TABLE_+0x8>
    5e06:	ff 25 64 6d 24 00    	jmpq   *0x246d64(%rip)        # 24cb70 <_GLOBAL_OFFSET_TABLE_+0x10>
    5e0c:	0f 1f 40 00          	nopl   0x0(%rax)

0000000000005e10 <inet_ntop@plt>:
    5e10:	ff 25 62 6d 24 00    	jmpq   *0x246d62(%rip)        # 24cb78 <inet_ntop@GLIBC_2.2.5>
    5e16:	68 00 00 00 00       	pushq  $0x0
    5e1b:	e9 e0 ff ff ff       	jmpq   5e00 <.plt>

0000000000005e20 <__snprintf_chk@plt>:
    5e20:	ff 25 5a 6d 24 00    	jmpq   *0x246d5a(%rip)        # 24cb80 <__snprintf_chk@GLIBC_2.3.4>
    5e26:	68 01 00 00 00       	pushq  $0x1
    5e2b:	e9 d0 ff ff ff       	jmpq   5e00 <.plt>

0000000000005e30 <free@plt>:
    5e30:	ff 25 52 6d 24 00    	jmpq   *0x246d52(%rip)        # 24cb88 <free@GLIBC_2.2.5>
    5e36:	68 02 00 00 00       	pushq  $0x2
    5e3b:	e9 c0 ff ff ff       	jmpq   5e00 <.plt>

0000000000005e40 <recv@plt>:
    5e40:	ff 25 4a 6d 24 00    	jmpq   *0x246d4a(%rip)        # 24cb90 <recv@GLIBC_2.2.5>
    5e46:	68 03 00 00 00       	pushq  $0x3
    5e4b:	e9 b0 ff ff ff       	jmpq   5e00 <.plt>

0000000000005e50 <putchar@plt>:
    5e50:	ff 25 42 6d 24 00    	jmpq   *0x246d42(%rip)        # 24cb98 <putchar@GLIBC_2.2.5>
    5e56:	68 04 00 00 00       	pushq  $0x4
    5e5b:	e9 a0 ff ff ff       	jmpq   5e00 <.plt>

0000000000005e60 <strcasecmp@plt>:
    5e60:	ff 25 3a 6d 24 00    	jmpq   *0x246d3a(%rip)        # 24cba0 <strcasecmp@GLIBC_2.2.5>
    5e66:	68 05 00 00 00       	pushq  $0x5
    5e6b:	e9 90 ff ff ff       	jmpq   5e00 <.plt>

0000000000005e70 <__vfprintf_chk@plt>:
    5e70:	ff 25 32 6d 24 00    	jmpq   *0x246d32(%rip)        # 24cba8 <__vfprintf_chk@GLIBC_2.3.4>
    5e76:	68 06 00 00 00       	pushq  $0x6
    5e7b:	e9 80 ff ff ff       	jmpq   5e00 <.plt>

0000000000005e80 <__errno_location@plt>:
    5e80:	ff 25 2a 6d 24 00    	jmpq   *0x246d2a(%rip)        # 24cbb0 <__errno_location@GLIBC_2.2.5>
    5e86:	68 07 00 00 00       	pushq  $0x7
    5e8b:	e9 70 ff ff ff       	jmpq   5e00 <.plt>

0000000000005e90 <unlink@plt>:
    5e90:	ff 25 22 6d 24 00    	jmpq   *0x246d22(%rip)        # 24cbb8 <unlink@GLIBC_2.2.5>
    5e96:	68 08 00 00 00       	pushq  $0x8
    5e9b:	e9 60 ff ff ff       	jmpq   5e00 <.plt>

0000000000005ea0 <strncpy@plt>:
    5ea0:	ff 25 1a 6d 24 00    	jmpq   *0x246d1a(%rip)        # 24cbc0 <strncpy@GLIBC_2.2.5>
    5ea6:	68 09 00 00 00       	pushq  $0x9
    5eab:	e9 50 ff ff ff       	jmpq   5e00 <.plt>

0000000000005eb0 <strncmp@plt>:
    5eb0:	ff 25 12 6d 24 00    	jmpq   *0x246d12(%rip)        # 24cbc8 <strncmp@GLIBC_2.2.5>
    5eb6:	68 0a 00 00 00       	pushq  $0xa
    5ebb:	e9 40 ff ff ff       	jmpq   5e00 <.plt>

0000000000005ec0 <_exit@plt>:
    5ec0:	ff 25 0a 6d 24 00    	jmpq   *0x246d0a(%rip)        # 24cbd0 <_exit@GLIBC_2.2.5>
    5ec6:	68 0b 00 00 00       	pushq  $0xb
    5ecb:	e9 30 ff ff ff       	jmpq   5e00 <.plt>

0000000000005ed0 <strcpy@plt>:
    5ed0:	ff 25 02 6d 24 00    	jmpq   *0x246d02(%rip)        # 24cbd8 <strcpy@GLIBC_2.2.5>
    5ed6:	68 0c 00 00 00       	pushq  $0xc
    5edb:	e9 20 ff ff ff       	jmpq   5e00 <.plt>

0000000000005ee0 <sendmsg@plt>:
    5ee0:	ff 25 fa 6c 24 00    	jmpq   *0x246cfa(%rip)        # 24cbe0 <sendmsg@GLIBC_2.2.5>
    5ee6:	68 0d 00 00 00       	pushq  $0xd
    5eeb:	e9 10 ff ff ff       	jmpq   5e00 <.plt>

0000000000005ef0 <writev@plt>:
    5ef0:	ff 25 f2 6c 24 00    	jmpq   *0x246cf2(%rip)        # 24cbe8 <writev@GLIBC_2.2.5>
    5ef6:	68 0e 00 00 00       	pushq  $0xe
    5efb:	e9 00 ff ff ff       	jmpq   5e00 <.plt>

0000000000005f00 <puts@plt>:
    5f00:	ff 25 ea 6c 24 00    	jmpq   *0x246cea(%rip)        # 24cbf0 <puts@GLIBC_2.2.5>
    5f06:	68 0f 00 00 00       	pushq  $0xf
    5f0b:	e9 f0 fe ff ff       	jmpq   5e00 <.plt>

0000000000005f10 <ferror@plt>:
    5f10:	ff 25 e2 6c 24 00    	jmpq   *0x246ce2(%rip)        # 24cbf8 <ferror@GLIBC_2.2.5>
    5f16:	68 10 00 00 00       	pushq  $0x10
    5f1b:	e9 e0 fe ff ff       	jmpq   5e00 <.plt>

0000000000005f20 <sigaction@plt>:
    5f20:	ff 25 da 6c 24 00    	jmpq   *0x246cda(%rip)        # 24cc00 <sigaction@GLIBC_2.2.5>
    5f26:	68 11 00 00 00       	pushq  $0x11
    5f2b:	e9 d0 fe ff ff       	jmpq   5e00 <.plt>

0000000000005f30 <setsockopt@plt>:
    5f30:	ff 25 d2 6c 24 00    	jmpq   *0x246cd2(%rip)        # 24cc08 <setsockopt@GLIBC_2.2.5>
    5f36:	68 12 00 00 00       	pushq  $0x12
    5f3b:	e9 c0 fe ff ff       	jmpq   5e00 <.plt>

0000000000005f40 <readlink@plt>:
    5f40:	ff 25 ca 6c 24 00    	jmpq   *0x246cca(%rip)        # 24cc10 <readlink@GLIBC_2.2.5>
    5f46:	68 13 00 00 00       	pushq  $0x13
    5f4b:	e9 b0 fe ff ff       	jmpq   5e00 <.plt>

0000000000005f50 <fcntl@plt>:
    5f50:	ff 25 c2 6c 24 00    	jmpq   *0x246cc2(%rip)        # 24cc18 <fcntl@GLIBC_2.2.5>
    5f56:	68 14 00 00 00       	pushq  $0x14
    5f5b:	e9 a0 fe ff ff       	jmpq   5e00 <.plt>

0000000000005f60 <setenv@plt>:
    5f60:	ff 25 ba 6c 24 00    	jmpq   *0x246cba(%rip)        # 24cc20 <setenv@GLIBC_2.2.5>
    5f66:	68 15 00 00 00       	pushq  $0x15
    5f6b:	e9 90 fe ff ff       	jmpq   5e00 <.plt>

0000000000005f70 <write@plt>:
    5f70:	ff 25 b2 6c 24 00    	jmpq   *0x246cb2(%rip)        # 24cc28 <write@GLIBC_2.2.5>
    5f76:	68 16 00 00 00       	pushq  $0x16
    5f7b:	e9 80 fe ff ff       	jmpq   5e00 <.plt>

0000000000005f80 <getpid@plt>:
    5f80:	ff 25 aa 6c 24 00    	jmpq   *0x246caa(%rip)        # 24cc30 <getpid@GLIBC_2.2.5>
    5f86:	68 17 00 00 00       	pushq  $0x17
    5f8b:	e9 70 fe ff ff       	jmpq   5e00 <.plt>

0000000000005f90 <inet_ntoa@plt>:
    5f90:	ff 25 a2 6c 24 00    	jmpq   *0x246ca2(%rip)        # 24cc38 <inet_ntoa@GLIBC_2.2.5>
    5f96:	68 18 00 00 00       	pushq  $0x18
    5f9b:	e9 60 fe ff ff       	jmpq   5e00 <.plt>

0000000000005fa0 <getpeername@plt>:
    5fa0:	ff 25 9a 6c 24 00    	jmpq   *0x246c9a(%rip)        # 24cc40 <getpeername@GLIBC_2.2.5>
    5fa6:	68 19 00 00 00       	pushq  $0x19
    5fab:	e9 50 fe ff ff       	jmpq   5e00 <.plt>

0000000000005fb0 <fclose@plt>:
    5fb0:	ff 25 92 6c 24 00    	jmpq   *0x246c92(%rip)        # 24cc48 <fclose@GLIBC_2.2.5>
    5fb6:	68 1a 00 00 00       	pushq  $0x1a
    5fbb:	e9 40 fe ff ff       	jmpq   5e00 <.plt>

0000000000005fc0 <__xstat64@plt>:
    5fc0:	ff 25 8a 6c 24 00    	jmpq   *0x246c8a(%rip)        # 24cc50 <__xstat64@GLIBC_2.2.5>
    5fc6:	68 1b 00 00 00       	pushq  $0x1b
    5fcb:	e9 30 fe ff ff       	jmpq   5e00 <.plt>

0000000000005fd0 <opendir@plt>:
    5fd0:	ff 25 82 6c 24 00    	jmpq   *0x246c82(%rip)        # 24cc58 <opendir@GLIBC_2.2.5>
    5fd6:	68 1c 00 00 00       	pushq  $0x1c
    5fdb:	e9 20 fe ff ff       	jmpq   5e00 <.plt>

0000000000005fe0 <ctime@plt>:
    5fe0:	ff 25 7a 6c 24 00    	jmpq   *0x246c7a(%rip)        # 24cc60 <ctime@GLIBC_2.2.5>
    5fe6:	68 1d 00 00 00       	pushq  $0x1d
    5feb:	e9 10 fe ff ff       	jmpq   5e00 <.plt>

0000000000005ff0 <shutdown@plt>:
    5ff0:	ff 25 72 6c 24 00    	jmpq   *0x246c72(%rip)        # 24cc68 <shutdown@GLIBC_2.2.5>
    5ff6:	68 1e 00 00 00       	pushq  $0x1e
    5ffb:	e9 00 fe ff ff       	jmpq   5e00 <.plt>

0000000000006000 <stpcpy@plt>:
    6000:	ff 25 6a 6c 24 00    	jmpq   *0x246c6a(%rip)        # 24cc70 <stpcpy@GLIBC_2.2.5>
    6006:	68 1f 00 00 00       	pushq  $0x1f
    600b:	e9 f0 fd ff ff       	jmpq   5e00 <.plt>

0000000000006010 <strlen@plt>:
    6010:	ff 25 62 6c 24 00    	jmpq   *0x246c62(%rip)        # 24cc78 <strlen@GLIBC_2.2.5>
    6016:	68 20 00 00 00       	pushq  $0x20
    601b:	e9 e0 fd ff ff       	jmpq   5e00 <.plt>

0000000000006020 <chdir@plt>:
    6020:	ff 25 5a 6c 24 00    	jmpq   *0x246c5a(%rip)        # 24cc80 <chdir@GLIBC_2.2.5>
    6026:	68 21 00 00 00       	pushq  $0x21
    602b:	e9 d0 fd ff ff       	jmpq   5e00 <.plt>

0000000000006030 <getuid@plt>:
    6030:	ff 25 52 6c 24 00    	jmpq   *0x246c52(%rip)        # 24cc88 <getuid@GLIBC_2.2.5>
    6036:	68 22 00 00 00       	pushq  $0x22
    603b:	e9 c0 fd ff ff       	jmpq   5e00 <.plt>

0000000000006040 <getopt_long@plt>:
    6040:	ff 25 4a 6c 24 00    	jmpq   *0x246c4a(%rip)        # 24cc90 <getopt_long@GLIBC_2.2.5>
    6046:	68 23 00 00 00       	pushq  $0x23
    604b:	e9 b0 fd ff ff       	jmpq   5e00 <.plt>

0000000000006050 <dup2@plt>:
    6050:	ff 25 42 6c 24 00    	jmpq   *0x246c42(%rip)        # 24cc98 <dup2@GLIBC_2.2.5>
    6056:	68 24 00 00 00       	pushq  $0x24
    605b:	e9 a0 fd ff ff       	jmpq   5e00 <.plt>

0000000000006060 <strchr@plt>:
    6060:	ff 25 3a 6c 24 00    	jmpq   *0x246c3a(%rip)        # 24cca0 <strchr@GLIBC_2.2.5>
    6066:	68 25 00 00 00       	pushq  $0x25
    606b:	e9 90 fd ff ff       	jmpq   5e00 <.plt>

0000000000006070 <difftime@plt>:
    6070:	ff 25 32 6c 24 00    	jmpq   *0x246c32(%rip)        # 24cca8 <difftime@GLIBC_2.2.5>
    6076:	68 26 00 00 00       	pushq  $0x26
    607b:	e9 80 fd ff ff       	jmpq   5e00 <.plt>

0000000000006080 <rewind@plt>:
    6080:	ff 25 2a 6c 24 00    	jmpq   *0x246c2a(%rip)        # 24ccb0 <rewind@GLIBC_2.2.5>
    6086:	68 27 00 00 00       	pushq  $0x27
    608b:	e9 70 fd ff ff       	jmpq   5e00 <.plt>

0000000000006090 <getgrgid@plt>:
    6090:	ff 25 22 6c 24 00    	jmpq   *0x246c22(%rip)        # 24ccb8 <getgrgid@GLIBC_2.2.5>
    6096:	68 28 00 00 00       	pushq  $0x28
    609b:	e9 60 fd ff ff       	jmpq   5e00 <.plt>

00000000000060a0 <pclose@plt>:
    60a0:	ff 25 1a 6c 24 00    	jmpq   *0x246c1a(%rip)        # 24ccc0 <pclose@GLIBC_2.2.5>
    60a6:	68 29 00 00 00       	pushq  $0x29
    60ab:	e9 50 fd ff ff       	jmpq   5e00 <.plt>

00000000000060b0 <snprintf@plt>:
    60b0:	ff 25 12 6c 24 00    	jmpq   *0x246c12(%rip)        # 24ccc8 <snprintf@GLIBC_2.2.5>
    60b6:	68 2a 00 00 00       	pushq  $0x2a
    60bb:	e9 40 fd ff ff       	jmpq   5e00 <.plt>

00000000000060c0 <nanosleep@plt>:
    60c0:	ff 25 0a 6c 24 00    	jmpq   *0x246c0a(%rip)        # 24ccd0 <nanosleep@GLIBC_2.2.5>
    60c6:	68 2b 00 00 00       	pushq  $0x2b
    60cb:	e9 30 fd ff ff       	jmpq   5e00 <.plt>

00000000000060d0 <strrchr@plt>:
    60d0:	ff 25 02 6c 24 00    	jmpq   *0x246c02(%rip)        # 24ccd8 <strrchr@GLIBC_2.2.5>
    60d6:	68 2c 00 00 00       	pushq  $0x2c
    60db:	e9 20 fd ff ff       	jmpq   5e00 <.plt>

00000000000060e0 <uname@plt>:
    60e0:	ff 25 fa 6b 24 00    	jmpq   *0x246bfa(%rip)        # 24cce0 <uname@GLIBC_2.2.5>
    60e6:	68 2d 00 00 00       	pushq  $0x2d
    60eb:	e9 10 fd ff ff       	jmpq   5e00 <.plt>

00000000000060f0 <dup@plt>:
    60f0:	ff 25 f2 6b 24 00    	jmpq   *0x246bf2(%rip)        # 24cce8 <dup@GLIBC_2.2.5>
    60f6:	68 2e 00 00 00       	pushq  $0x2e
    60fb:	e9 00 fd ff ff       	jmpq   5e00 <.plt>

0000000000006100 <capset@plt>:
    6100:	ff 25 ea 6b 24 00    	jmpq   *0x246bea(%rip)        # 24ccf0 <capset@GLIBC_2.2.5>
    6106:	68 2f 00 00 00       	pushq  $0x2f
    610b:	e9 f0 fc ff ff       	jmpq   5e00 <.plt>

0000000000006110 <memset@plt>:
    6110:	ff 25 e2 6b 24 00    	jmpq   *0x246be2(%rip)        # 24ccf8 <memset@GLIBC_2.2.5>
    6116:	68 30 00 00 00       	pushq  $0x30
    611b:	e9 e0 fc ff ff       	jmpq   5e00 <.plt>

0000000000006120 <geteuid@plt>:
    6120:	ff 25 da 6b 24 00    	jmpq   *0x246bda(%rip)        # 24cd00 <geteuid@GLIBC_2.2.5>
    6126:	68 31 00 00 00       	pushq  $0x31
    612b:	e9 d0 fc ff ff       	jmpq   5e00 <.plt>

0000000000006130 <fscanf@plt>:
    6130:	ff 25 d2 6b 24 00    	jmpq   *0x246bd2(%rip)        # 24cd08 <fscanf@GLIBC_2.2.5>
    6136:	68 32 00 00 00       	pushq  $0x32
    613b:	e9 c0 fc ff ff       	jmpq   5e00 <.plt>

0000000000006140 <ioctl@plt>:
    6140:	ff 25 ca 6b 24 00    	jmpq   *0x246bca(%rip)        # 24cd10 <ioctl@GLIBC_2.2.5>
    6146:	68 33 00 00 00       	pushq  $0x33
    614b:	e9 b0 fc ff ff       	jmpq   5e00 <.plt>

0000000000006150 <sendto@plt>:
    6150:	ff 25 c2 6b 24 00    	jmpq   *0x246bc2(%rip)        # 24cd18 <sendto@GLIBC_2.2.5>
    6156:	68 34 00 00 00       	pushq  $0x34
    615b:	e9 a0 fc ff ff       	jmpq   5e00 <.plt>

0000000000006160 <strncat@plt>:
    6160:	ff 25 ba 6b 24 00    	jmpq   *0x246bba(%rip)        # 24cd20 <strncat@GLIBC_2.2.5>
    6166:	68 35 00 00 00       	pushq  $0x35
    616b:	e9 90 fc ff ff       	jmpq   5e00 <.plt>

0000000000006170 <alarm@plt>:
    6170:	ff 25 b2 6b 24 00    	jmpq   *0x246bb2(%rip)        # 24cd28 <alarm@GLIBC_2.2.5>
    6176:	68 36 00 00 00       	pushq  $0x36
    617b:	e9 80 fc ff ff       	jmpq   5e00 <.plt>

0000000000006180 <close@plt>:
    6180:	ff 25 aa 6b 24 00    	jmpq   *0x246baa(%rip)        # 24cd30 <close@GLIBC_2.2.5>
    6186:	68 37 00 00 00       	pushq  $0x37
    618b:	e9 70 fc ff ff       	jmpq   5e00 <.plt>

0000000000006190 <setgroups@plt>:
    6190:	ff 25 a2 6b 24 00    	jmpq   *0x246ba2(%rip)        # 24cd38 <setgroups@GLIBC_2.2.5>
    6196:	68 38 00 00 00       	pushq  $0x38
    619b:	e9 60 fc ff ff       	jmpq   5e00 <.plt>

00000000000061a0 <pipe@plt>:
    61a0:	ff 25 9a 6b 24 00    	jmpq   *0x246b9a(%rip)        # 24cd40 <pipe@GLIBC_2.2.5>
    61a6:	68 39 00 00 00       	pushq  $0x39
    61ab:	e9 50 fc ff ff       	jmpq   5e00 <.plt>

00000000000061b0 <setsid@plt>:
    61b0:	ff 25 92 6b 24 00    	jmpq   *0x246b92(%rip)        # 24cd48 <setsid@GLIBC_2.2.5>
    61b6:	68 3a 00 00 00       	pushq  $0x3a
    61bb:	e9 40 fc ff ff       	jmpq   5e00 <.plt>

00000000000061c0 <__vsyslog_chk@plt>:
    61c0:	ff 25 8a 6b 24 00    	jmpq   *0x246b8a(%rip)        # 24cd50 <__vsyslog_chk@GLIBC_2.4>
    61c6:	68 3b 00 00 00       	pushq  $0x3b
    61cb:	e9 30 fc ff ff       	jmpq   5e00 <.plt>

00000000000061d0 <closedir@plt>:
    61d0:	ff 25 82 6b 24 00    	jmpq   *0x246b82(%rip)        # 24cd58 <closedir@GLIBC_2.2.5>
    61d6:	68 3c 00 00 00       	pushq  $0x3c
    61db:	e9 20 fc ff ff       	jmpq   5e00 <.plt>

00000000000061e0 <fputc@plt>:
    61e0:	ff 25 7a 6b 24 00    	jmpq   *0x246b7a(%rip)        # 24cd60 <fputc@GLIBC_2.2.5>
    61e6:	68 3d 00 00 00       	pushq  $0x3d
    61eb:	e9 10 fc ff ff       	jmpq   5e00 <.plt>

00000000000061f0 <read@plt>:
    61f0:	ff 25 72 6b 24 00    	jmpq   *0x246b72(%rip)        # 24cd68 <read@GLIBC_2.2.5>
    61f6:	68 3e 00 00 00       	pushq  $0x3e
    61fb:	e9 00 fc ff ff       	jmpq   5e00 <.plt>

0000000000006200 <memcmp@plt>:
    6200:	ff 25 6a 6b 24 00    	jmpq   *0x246b6a(%rip)        # 24cd70 <memcmp@GLIBC_2.2.5>
    6206:	68 3f 00 00 00       	pushq  $0x3f
    620b:	e9 f0 fb ff ff       	jmpq   5e00 <.plt>

0000000000006210 <fgets@plt>:
    6210:	ff 25 62 6b 24 00    	jmpq   *0x246b62(%rip)        # 24cd78 <fgets@GLIBC_2.2.5>
    6216:	68 40 00 00 00       	pushq  $0x40
    621b:	e9 e0 fb ff ff       	jmpq   5e00 <.plt>

0000000000006220 <getsockopt@plt>:
    6220:	ff 25 5a 6b 24 00    	jmpq   *0x246b5a(%rip)        # 24cd80 <getsockopt@GLIBC_2.2.5>
    6226:	68 41 00 00 00       	pushq  $0x41
    622b:	e9 d0 fb ff ff       	jmpq   5e00 <.plt>

0000000000006230 <_setjmp@plt>:
    6230:	ff 25 52 6b 24 00    	jmpq   *0x246b52(%rip)        # 24cd88 <_setjmp@GLIBC_2.2.5>
    6236:	68 42 00 00 00       	pushq  $0x42
    623b:	e9 c0 fb ff ff       	jmpq   5e00 <.plt>

0000000000006240 <calloc@plt>:
    6240:	ff 25 4a 6b 24 00    	jmpq   *0x246b4a(%rip)        # 24cd90 <calloc@GLIBC_2.2.5>
    6246:	68 43 00 00 00       	pushq  $0x43
    624b:	e9 b0 fb ff ff       	jmpq   5e00 <.plt>

0000000000006250 <inet_addr@plt>:
    6250:	ff 25 42 6b 24 00    	jmpq   *0x246b42(%rip)        # 24cd98 <inet_addr@GLIBC_2.2.5>
    6256:	68 44 00 00 00       	pushq  $0x44
    625b:	e9 a0 fb ff ff       	jmpq   5e00 <.plt>

0000000000006260 <__fxstat64@plt>:
    6260:	ff 25 3a 6b 24 00    	jmpq   *0x246b3a(%rip)        # 24cda0 <__fxstat64@GLIBC_2.2.5>
    6266:	68 45 00 00 00       	pushq  $0x45
    626b:	e9 90 fb ff ff       	jmpq   5e00 <.plt>

0000000000006270 <strcmp@plt>:
    6270:	ff 25 32 6b 24 00    	jmpq   *0x246b32(%rip)        # 24cda8 <strcmp@GLIBC_2.2.5>
    6276:	68 46 00 00 00       	pushq  $0x46
    627b:	e9 80 fb ff ff       	jmpq   5e00 <.plt>

0000000000006280 <getpwnam@plt>:
    6280:	ff 25 2a 6b 24 00    	jmpq   *0x246b2a(%rip)        # 24cdb0 <getpwnam@GLIBC_2.2.5>
    6286:	68 47 00 00 00       	pushq  $0x47
    628b:	e9 70 fb ff ff       	jmpq   5e00 <.plt>

0000000000006290 <__memcpy_chk@plt>:
    6290:	ff 25 22 6b 24 00    	jmpq   *0x246b22(%rip)        # 24cdb8 <__memcpy_chk@GLIBC_2.3.4>
    6296:	68 48 00 00 00       	pushq  $0x48
    629b:	e9 60 fb ff ff       	jmpq   5e00 <.plt>

00000000000062a0 <sigemptyset@plt>:
    62a0:	ff 25 1a 6b 24 00    	jmpq   *0x246b1a(%rip)        # 24cdc0 <sigemptyset@GLIBC_2.2.5>
    62a6:	68 49 00 00 00       	pushq  $0x49
    62ab:	e9 50 fb ff ff       	jmpq   5e00 <.plt>

00000000000062b0 <umask@plt>:
    62b0:	ff 25 12 6b 24 00    	jmpq   *0x246b12(%rip)        # 24cdc8 <umask@GLIBC_2.2.5>
    62b6:	68 4a 00 00 00       	pushq  $0x4a
    62bb:	e9 40 fb ff ff       	jmpq   5e00 <.plt>

00000000000062c0 <if_nametoindex@plt>:
    62c0:	ff 25 0a 6b 24 00    	jmpq   *0x246b0a(%rip)        # 24cdd0 <if_nametoindex@GLIBC_2.2.5>
    62c6:	68 4b 00 00 00       	pushq  $0x4b
    62cb:	e9 30 fb ff ff       	jmpq   5e00 <.plt>

00000000000062d0 <fopen64@plt>:
    62d0:	ff 25 02 6b 24 00    	jmpq   *0x246b02(%rip)        # 24cdd8 <fopen64@GLIBC_2.2.5>
    62d6:	68 4c 00 00 00       	pushq  $0x4c
    62db:	e9 20 fb ff ff       	jmpq   5e00 <.plt>

00000000000062e0 <strtol@plt>:
    62e0:	ff 25 fa 6a 24 00    	jmpq   *0x246afa(%rip)        # 24cde0 <strtol@GLIBC_2.2.5>
    62e6:	68 4d 00 00 00       	pushq  $0x4d
    62eb:	e9 10 fb ff ff       	jmpq   5e00 <.plt>

00000000000062f0 <memcpy@plt>:
    62f0:	ff 25 f2 6a 24 00    	jmpq   *0x246af2(%rip)        # 24cde8 <memcpy@GLIBC_2.14>
    62f6:	68 4e 00 00 00       	pushq  $0x4e
    62fb:	e9 00 fb ff ff       	jmpq   5e00 <.plt>

0000000000006300 <getgrnam@plt>:
    6300:	ff 25 ea 6a 24 00    	jmpq   *0x246aea(%rip)        # 24cdf0 <getgrnam@GLIBC_2.2.5>
    6306:	68 4f 00 00 00       	pushq  $0x4f
    630b:	e9 f0 fa ff ff       	jmpq   5e00 <.plt>

0000000000006310 <prctl@plt>:
    6310:	ff 25 e2 6a 24 00    	jmpq   *0x246ae2(%rip)        # 24cdf8 <prctl@GLIBC_2.2.5>
    6316:	68 50 00 00 00       	pushq  $0x50
    631b:	e9 e0 fa ff ff       	jmpq   5e00 <.plt>

0000000000006320 <inet_pton@plt>:
    6320:	ff 25 da 6a 24 00    	jmpq   *0x246ada(%rip)        # 24ce00 <inet_pton@GLIBC_2.2.5>
    6326:	68 51 00 00 00       	pushq  $0x51
    632b:	e9 d0 fa ff ff       	jmpq   5e00 <.plt>

0000000000006330 <kill@plt>:
    6330:	ff 25 d2 6a 24 00    	jmpq   *0x246ad2(%rip)        # 24ce08 <kill@GLIBC_2.2.5>
    6336:	68 52 00 00 00       	pushq  $0x52
    633b:	e9 c0 fa ff ff       	jmpq   5e00 <.plt>

0000000000006340 <time@plt>:
    6340:	ff 25 ca 6a 24 00    	jmpq   *0x246aca(%rip)        # 24ce10 <time@GLIBC_2.2.5>
    6346:	68 53 00 00 00       	pushq  $0x53
    634b:	e9 b0 fa ff ff       	jmpq   5e00 <.plt>

0000000000006350 <fileno@plt>:
    6350:	ff 25 c2 6a 24 00    	jmpq   *0x246ac2(%rip)        # 24ce18 <fileno@GLIBC_2.2.5>
    6356:	68 54 00 00 00       	pushq  $0x54
    635b:	e9 a0 fa ff ff       	jmpq   5e00 <.plt>

0000000000006360 <capget@plt>:
    6360:	ff 25 ba 6a 24 00    	jmpq   *0x246aba(%rip)        # 24ce20 <capget@GLIBC_2.2.5>
    6366:	68 55 00 00 00       	pushq  $0x55
    636b:	e9 90 fa ff ff       	jmpq   5e00 <.plt>

0000000000006370 <malloc@plt>:
    6370:	ff 25 b2 6a 24 00    	jmpq   *0x246ab2(%rip)        # 24ce28 <malloc@GLIBC_2.2.5>
    6376:	68 56 00 00 00       	pushq  $0x56
    637b:	e9 80 fa ff ff       	jmpq   5e00 <.plt>

0000000000006380 <fflush@plt>:
    6380:	ff 25 aa 6a 24 00    	jmpq   *0x246aaa(%rip)        # 24ce30 <fflush@GLIBC_2.2.5>
    6386:	68 57 00 00 00       	pushq  $0x57
    638b:	e9 70 fa ff ff       	jmpq   5e00 <.plt>

0000000000006390 <_IO_getc@plt>:
    6390:	ff 25 a2 6a 24 00    	jmpq   *0x246aa2(%rip)        # 24ce38 <_IO_getc@GLIBC_2.2.5>
    6396:	68 58 00 00 00       	pushq  $0x58
    639b:	e9 60 fa ff ff       	jmpq   5e00 <.plt>

00000000000063a0 <inotify_add_watch@plt>:
    63a0:	ff 25 9a 6a 24 00    	jmpq   *0x246a9a(%rip)        # 24ce40 <inotify_add_watch@GLIBC_2.4>
    63a6:	68 59 00 00 00       	pushq  $0x59
    63ab:	e9 50 fa ff ff       	jmpq   5e00 <.plt>

00000000000063b0 <ungetc@plt>:
    63b0:	ff 25 92 6a 24 00    	jmpq   *0x246a92(%rip)        # 24ce48 <ungetc@GLIBC_2.2.5>
    63b6:	68 5a 00 00 00       	pushq  $0x5a
    63bb:	e9 40 fa ff ff       	jmpq   5e00 <.plt>

00000000000063c0 <listen@plt>:
    63c0:	ff 25 8a 6a 24 00    	jmpq   *0x246a8a(%rip)        # 24ce50 <listen@GLIBC_2.2.5>
    63c6:	68 5b 00 00 00       	pushq  $0x5b
    63cb:	e9 30 fa ff ff       	jmpq   5e00 <.plt>

00000000000063d0 <recvfrom@plt>:
    63d0:	ff 25 82 6a 24 00    	jmpq   *0x246a82(%rip)        # 24ce58 <recvfrom@GLIBC_2.2.5>
    63d6:	68 5c 00 00 00       	pushq  $0x5c
    63db:	e9 20 fa ff ff       	jmpq   5e00 <.plt>

00000000000063e0 <__vsnprintf_chk@plt>:
    63e0:	ff 25 7a 6a 24 00    	jmpq   *0x246a7a(%rip)        # 24ce60 <__vsnprintf_chk@GLIBC_2.3.4>
    63e6:	68 5d 00 00 00       	pushq  $0x5d
    63eb:	e9 10 fa ff ff       	jmpq   5e00 <.plt>

00000000000063f0 <if_indextoname@plt>:
    63f0:	ff 25 72 6a 24 00    	jmpq   *0x246a72(%rip)        # 24ce68 <if_indextoname@GLIBC_2.2.5>
    63f6:	68 5e 00 00 00       	pushq  $0x5e
    63fb:	e9 00 fa ff ff       	jmpq   5e00 <.plt>

0000000000006400 <__strcpy_chk@plt>:
    6400:	ff 25 6a 6a 24 00    	jmpq   *0x246a6a(%rip)        # 24ce70 <__strcpy_chk@GLIBC_2.3.4>
    6406:	68 5f 00 00 00       	pushq  $0x5f
    640b:	e9 f0 f9 ff ff       	jmpq   5e00 <.plt>

0000000000006410 <fdopen@plt>:
    6410:	ff 25 62 6a 24 00    	jmpq   *0x246a62(%rip)        # 24ce78 <fdopen@GLIBC_2.2.5>
    6416:	68 60 00 00 00       	pushq  $0x60
    641b:	e9 e0 f9 ff ff       	jmpq   5e00 <.plt>

0000000000006420 <recvmsg@plt>:
    6420:	ff 25 5a 6a 24 00    	jmpq   *0x246a5a(%rip)        # 24ce80 <recvmsg@GLIBC_2.2.5>
    6426:	68 61 00 00 00       	pushq  $0x61
    642b:	e9 d0 f9 ff ff       	jmpq   5e00 <.plt>

0000000000006430 <ftruncate64@plt>:
    6430:	ff 25 52 6a 24 00    	jmpq   *0x246a52(%rip)        # 24ce88 <ftruncate64@GLIBC_2.2.5>
    6436:	68 62 00 00 00       	pushq  $0x62
    643b:	e9 c0 f9 ff ff       	jmpq   5e00 <.plt>

0000000000006440 <__printf_chk@plt>:
    6440:	ff 25 4a 6a 24 00    	jmpq   *0x246a4a(%rip)        # 24ce90 <__printf_chk@GLIBC_2.3.4>
    6446:	68 63 00 00 00       	pushq  $0x63
    644b:	e9 b0 f9 ff ff       	jmpq   5e00 <.plt>

0000000000006450 <poll@plt>:
    6450:	ff 25 42 6a 24 00    	jmpq   *0x246a42(%rip)        # 24ce98 <poll@GLIBC_2.2.5>
    6456:	68 64 00 00 00       	pushq  $0x64
    645b:	e9 a0 f9 ff ff       	jmpq   5e00 <.plt>

0000000000006460 <bind@plt>:
    6460:	ff 25 3a 6a 24 00    	jmpq   *0x246a3a(%rip)        # 24cea0 <bind@GLIBC_2.2.5>
    6466:	68 65 00 00 00       	pushq  $0x65
    646b:	e9 90 f9 ff ff       	jmpq   5e00 <.plt>

0000000000006470 <__longjmp_chk@plt>:
    6470:	ff 25 32 6a 24 00    	jmpq   *0x246a32(%rip)        # 24cea8 <__longjmp_chk@GLIBC_2.11>
    6476:	68 66 00 00 00       	pushq  $0x66
    647b:	e9 80 f9 ff ff       	jmpq   5e00 <.plt>

0000000000006480 <open64@plt>:
    6480:	ff 25 2a 6a 24 00    	jmpq   *0x246a2a(%rip)        # 24ceb0 <open64@GLIBC_2.2.5>
    6486:	68 67 00 00 00       	pushq  $0x67
    648b:	e9 70 f9 ff ff       	jmpq   5e00 <.plt>

0000000000006490 <memmove@plt>:
    6490:	ff 25 22 6a 24 00    	jmpq   *0x246a22(%rip)        # 24ceb8 <memmove@GLIBC_2.2.5>
    6496:	68 68 00 00 00       	pushq  $0x68
    649b:	e9 60 f9 ff ff       	jmpq   5e00 <.plt>

00000000000064a0 <readdir64@plt>:
    64a0:	ff 25 1a 6a 24 00    	jmpq   *0x246a1a(%rip)        # 24cec0 <readdir64@GLIBC_2.2.5>
    64a6:	68 69 00 00 00       	pushq  $0x69
    64ab:	e9 50 f9 ff ff       	jmpq   5e00 <.plt>

00000000000064b0 <fsync@plt>:
    64b0:	ff 25 12 6a 24 00    	jmpq   *0x246a12(%rip)        # 24cec8 <fsync@GLIBC_2.2.5>
    64b6:	68 6a 00 00 00       	pushq  $0x6a
    64bb:	e9 40 f9 ff ff       	jmpq   5e00 <.plt>

00000000000064c0 <setgid@plt>:
    64c0:	ff 25 0a 6a 24 00    	jmpq   *0x246a0a(%rip)        # 24ced0 <setgid@GLIBC_2.2.5>
    64c6:	68 6b 00 00 00       	pushq  $0x6b
    64cb:	e9 30 f9 ff ff       	jmpq   5e00 <.plt>

00000000000064d0 <waitpid@plt>:
    64d0:	ff 25 02 6a 24 00    	jmpq   *0x246a02(%rip)        # 24ced8 <waitpid@GLIBC_2.2.5>
    64d6:	68 6c 00 00 00       	pushq  $0x6c
    64db:	e9 20 f9 ff ff       	jmpq   5e00 <.plt>

00000000000064e0 <popen@plt>:
    64e0:	ff 25 fa 69 24 00    	jmpq   *0x2469fa(%rip)        # 24cee0 <popen@GLIBC_2.2.5>
    64e6:	68 6d 00 00 00       	pushq  $0x6d
    64eb:	e9 10 f9 ff ff       	jmpq   5e00 <.plt>

00000000000064f0 <fchown@plt>:
    64f0:	ff 25 f2 69 24 00    	jmpq   *0x2469f2(%rip)        # 24cee8 <fchown@GLIBC_2.2.5>
    64f6:	68 6e 00 00 00       	pushq  $0x6e
    64fb:	e9 00 f9 ff ff       	jmpq   5e00 <.plt>

0000000000006500 <strtok@plt>:
    6500:	ff 25 ea 69 24 00    	jmpq   *0x2469ea(%rip)        # 24cef0 <strtok@GLIBC_2.2.5>
    6506:	68 6f 00 00 00       	pushq  $0x6f
    650b:	e9 f0 f8 ff ff       	jmpq   5e00 <.plt>

0000000000006510 <strcasestr@plt>:
    6510:	ff 25 e2 69 24 00    	jmpq   *0x2469e2(%rip)        # 24cef8 <strcasestr@GLIBC_2.2.5>
    6516:	68 70 00 00 00       	pushq  $0x70
    651b:	e9 e0 f8 ff ff       	jmpq   5e00 <.plt>

0000000000006520 <sysconf@plt>:
    6520:	ff 25 da 69 24 00    	jmpq   *0x2469da(%rip)        # 24cf00 <sysconf@GLIBC_2.2.5>
    6526:	68 71 00 00 00       	pushq  $0x71
    652b:	e9 d0 f8 ff ff       	jmpq   5e00 <.plt>

0000000000006530 <unsetenv@plt>:
    6530:	ff 25 d2 69 24 00    	jmpq   *0x2469d2(%rip)        # 24cf08 <unsetenv@GLIBC_2.2.5>
    6536:	68 72 00 00 00       	pushq  $0x72
    653b:	e9 c0 f8 ff ff       	jmpq   5e00 <.plt>

0000000000006540 <accept@plt>:
    6540:	ff 25 ca 69 24 00    	jmpq   *0x2469ca(%rip)        # 24cf10 <accept@GLIBC_2.2.5>
    6546:	68 73 00 00 00       	pushq  $0x73
    654b:	e9 b0 f8 ff ff       	jmpq   5e00 <.plt>

0000000000006550 <getsockname@plt>:
    6550:	ff 25 c2 69 24 00    	jmpq   *0x2469c2(%rip)        # 24cf18 <getsockname@GLIBC_2.2.5>
    6556:	68 74 00 00 00       	pushq  $0x74
    655b:	e9 a0 f8 ff ff       	jmpq   5e00 <.plt>

0000000000006560 <strtoul@plt>:
    6560:	ff 25 ba 69 24 00    	jmpq   *0x2469ba(%rip)        # 24cf20 <strtoul@GLIBC_2.2.5>
    6566:	68 75 00 00 00       	pushq  $0x75
    656b:	e9 90 f8 ff ff       	jmpq   5e00 <.plt>

0000000000006570 <strcat@plt>:
    6570:	ff 25 b2 69 24 00    	jmpq   *0x2469b2(%rip)        # 24cf28 <strcat@GLIBC_2.2.5>
    6576:	68 76 00 00 00       	pushq  $0x76
    657b:	e9 80 f8 ff ff       	jmpq   5e00 <.plt>

0000000000006580 <openlog@plt>:
    6580:	ff 25 aa 69 24 00    	jmpq   *0x2469aa(%rip)        # 24cf30 <openlog@GLIBC_2.2.5>
    6586:	68 77 00 00 00       	pushq  $0x77
    658b:	e9 70 f8 ff ff       	jmpq   5e00 <.plt>

0000000000006590 <gethostname@plt>:
    6590:	ff 25 a2 69 24 00    	jmpq   *0x2469a2(%rip)        # 24cf38 <gethostname@GLIBC_2.2.5>
    6596:	68 78 00 00 00       	pushq  $0x78
    659b:	e9 60 f8 ff ff       	jmpq   5e00 <.plt>

00000000000065a0 <sprintf@plt>:
    65a0:	ff 25 9a 69 24 00    	jmpq   *0x24699a(%rip)        # 24cf40 <sprintf@GLIBC_2.2.5>
    65a6:	68 79 00 00 00       	pushq  $0x79
    65ab:	e9 50 f8 ff ff       	jmpq   5e00 <.plt>

00000000000065b0 <exit@plt>:
    65b0:	ff 25 92 69 24 00    	jmpq   *0x246992(%rip)        # 24cf48 <exit@GLIBC_2.2.5>
    65b6:	68 7a 00 00 00       	pushq  $0x7a
    65bb:	e9 40 f8 ff ff       	jmpq   5e00 <.plt>

00000000000065c0 <connect@plt>:
    65c0:	ff 25 8a 69 24 00    	jmpq   *0x24698a(%rip)        # 24cf50 <connect@GLIBC_2.2.5>
    65c6:	68 7b 00 00 00       	pushq  $0x7b
    65cb:	e9 30 f8 ff ff       	jmpq   5e00 <.plt>

00000000000065d0 <lseek64@plt>:
    65d0:	ff 25 82 69 24 00    	jmpq   *0x246982(%rip)        # 24cf58 <lseek64@GLIBC_2.2.5>
    65d6:	68 7c 00 00 00       	pushq  $0x7c
    65db:	e9 20 f8 ff ff       	jmpq   5e00 <.plt>

00000000000065e0 <__fprintf_chk@plt>:
    65e0:	ff 25 7a 69 24 00    	jmpq   *0x24697a(%rip)        # 24cf60 <__fprintf_chk@GLIBC_2.3.4>
    65e6:	68 7d 00 00 00       	pushq  $0x7d
    65eb:	e9 10 f8 ff ff       	jmpq   5e00 <.plt>

00000000000065f0 <setuid@plt>:
    65f0:	ff 25 72 69 24 00    	jmpq   *0x246972(%rip)        # 24cf68 <setuid@GLIBC_2.2.5>
    65f6:	68 7e 00 00 00       	pushq  $0x7e
    65fb:	e9 00 f8 ff ff       	jmpq   5e00 <.plt>

0000000000006600 <strerror@plt>:
    6600:	ff 25 6a 69 24 00    	jmpq   *0x24696a(%rip)        # 24cf70 <strerror@GLIBC_2.2.5>
    6606:	68 7f 00 00 00       	pushq  $0x7f
    660b:	e9 f0 f7 ff ff       	jmpq   5e00 <.plt>

0000000000006610 <execl@plt>:
    6610:	ff 25 62 69 24 00    	jmpq   *0x246962(%rip)        # 24cf78 <execl@GLIBC_2.2.5>
    6616:	68 80 00 00 00       	pushq  $0x80
    661b:	e9 e0 f7 ff ff       	jmpq   5e00 <.plt>

0000000000006620 <sleep@plt>:
    6620:	ff 25 5a 69 24 00    	jmpq   *0x24695a(%rip)        # 24cf80 <sleep@GLIBC_2.2.5>
    6626:	68 81 00 00 00       	pushq  $0x81
    662b:	e9 d0 f7 ff ff       	jmpq   5e00 <.plt>

0000000000006630 <wait@plt>:
    6630:	ff 25 52 69 24 00    	jmpq   *0x246952(%rip)        # 24cf88 <wait@GLIBC_2.2.5>
    6636:	68 82 00 00 00       	pushq  $0x82
    663b:	e9 c0 f7 ff ff       	jmpq   5e00 <.plt>

0000000000006640 <inotify_init1@plt>:
    6640:	ff 25 4a 69 24 00    	jmpq   *0x24694a(%rip)        # 24cf90 <inotify_init1@GLIBC_2.9>
    6646:	68 83 00 00 00       	pushq  $0x83
    664b:	e9 b0 f7 ff ff       	jmpq   5e00 <.plt>

0000000000006650 <fork@plt>:
    6650:	ff 25 42 69 24 00    	jmpq   *0x246942(%rip)        # 24cf98 <fork@GLIBC_2.2.5>
    6656:	68 84 00 00 00       	pushq  $0x84
    665b:	e9 a0 f7 ff ff       	jmpq   5e00 <.plt>

0000000000006660 <strstr@plt>:
    6660:	ff 25 3a 69 24 00    	jmpq   *0x24693a(%rip)        # 24cfa0 <strstr@GLIBC_2.2.5>
    6666:	68 85 00 00 00       	pushq  $0x85
    666b:	e9 90 f7 ff ff       	jmpq   5e00 <.plt>

0000000000006670 <__ctype_tolower_loc@plt>:
    6670:	ff 25 32 69 24 00    	jmpq   *0x246932(%rip)        # 24cfa8 <__ctype_tolower_loc@GLIBC_2.3>
    6676:	68 86 00 00 00       	pushq  $0x86
    667b:	e9 80 f7 ff ff       	jmpq   5e00 <.plt>

0000000000006680 <__ctype_b_loc@plt>:
    6680:	ff 25 2a 69 24 00    	jmpq   *0x24692a(%rip)        # 24cfb0 <__ctype_b_loc@GLIBC_2.3>
    6686:	68 87 00 00 00       	pushq  $0x87
    668b:	e9 70 f7 ff ff       	jmpq   5e00 <.plt>

0000000000006690 <__sprintf_chk@plt>:
    6690:	ff 25 22 69 24 00    	jmpq   *0x246922(%rip)        # 24cfb8 <__sprintf_chk@GLIBC_2.3.4>
    6696:	68 88 00 00 00       	pushq  $0x88
    669b:	e9 60 f7 ff ff       	jmpq   5e00 <.plt>

00000000000066a0 <socket@plt>:
    66a0:	ff 25 1a 69 24 00    	jmpq   *0x24691a(%rip)        # 24cfc0 <socket@GLIBC_2.2.5>
    66a6:	68 89 00 00 00       	pushq  $0x89
    66ab:	e9 50 f7 ff ff       	jmpq   5e00 <.plt>

Disassembly of section .plt.got:

00000000000066b0 <__cxa_finalize@plt>:
    66b0:	ff 25 32 69 24 00    	jmpq   *0x246932(%rip)        # 24cfe8 <__cxa_finalize@GLIBC_2.2.5>
    66b6:	66 90                	xchg   %ax,%ax

Disassembly of section .text:

00000000000066c0 <add_rev4>:
    66c0:	41 55                	push   %r13
    66c2:	41 54                	push   %r12
    66c4:	41 89 fc             	mov    %edi,%r12d
    66c7:	55                   	push   %rbp
    66c8:	53                   	push   %rbx
    66c9:	bf 80 00 00 00       	mov    $0x80,%edi
    66ce:	41 89 f5             	mov    %esi,%r13d
    66d1:	41 0f cc             	bswap  %r12d
    66d4:	48 83 ec 08          	sub    $0x8,%rsp
    66d8:	e8 d3 c3 00 00       	callq  12ab0 <opt_malloc>
    66dd:	48 89 c5             	mov    %rax,%rbp
    66e0:	b9 20 00 00 00       	mov    $0x20,%ecx
    66e5:	31 c0                	xor    %eax,%eax
    66e7:	48 89 ef             	mov    %rbp,%rdi
    66ea:	f3 ab                	rep stos %eax,%es:(%rdi)
    66ec:	bf 1d 00 00 00       	mov    $0x1d,%edi
    66f1:	e8 ba c3 00 00       	callq  12ab0 <opt_malloc>
    66f6:	41 83 fd 10          	cmp    $0x10,%r13d
    66fa:	48 89 c3             	mov    %rax,%rbx
    66fd:	48 89 45 58          	mov    %rax,0x58(%rbp)
    6701:	74 6c                	je     676f <add_rev4+0xaf>
    6703:	7f 0f                	jg     6714 <add_rev4+0x54>
    6705:	41 83 fd 08          	cmp    $0x8,%r13d
    6709:	0f 84 8a 00 00 00    	je     6799 <add_rev4+0xd9>
    670f:	e9 de 00 00 00       	jmpq   67f2 <add_rev4+0x132>
    6714:	41 83 fd 18          	cmp    $0x18,%r13d
    6718:	74 2d                	je     6747 <add_rev4+0x87>
    671a:	41 83 fd 20          	cmp    $0x20,%r13d
    671e:	0f 85 ce 00 00 00    	jne    67f2 <add_rev4+0x132>
    6724:	48 8d 0d aa 78 03 00 	lea    0x378aa(%rip),%rcx        # 3dfd5 <_IO_stdin_used+0x675>
    672b:	48 89 c7             	mov    %rax,%rdi
    672e:	45 0f b6 c4          	movzbl %r12b,%r8d
    6732:	48 83 ca ff          	or     $0xffffffffffffffff,%rdx
    6736:	be 01 00 00 00       	mov    $0x1,%esi
    673b:	31 c0                	xor    %eax,%eax
    673d:	e8 4e ff ff ff       	callq  6690 <__sprintf_chk@plt>
    6742:	48 98                	cltq   
    6744:	48 01 c3             	add    %rax,%rbx
    6747:	44 89 e0             	mov    %r12d,%eax
    674a:	48 8d 0d 84 78 03 00 	lea    0x37884(%rip),%rcx        # 3dfd5 <_IO_stdin_used+0x675>
    6751:	48 89 df             	mov    %rbx,%rdi
    6754:	0f b6 c4             	movzbl %ah,%eax
    6757:	48 83 ca ff          	or     $0xffffffffffffffff,%rdx
    675b:	be 01 00 00 00       	mov    $0x1,%esi
    6760:	41 89 c0             	mov    %eax,%r8d
    6763:	31 c0                	xor    %eax,%eax
    6765:	e8 26 ff ff ff       	callq  6690 <__sprintf_chk@plt>
    676a:	48 98                	cltq   
    676c:	48 01 c3             	add    %rax,%rbx
    676f:	45 89 e0             	mov    %r12d,%r8d
    6772:	48 8d 0d 5c 78 03 00 	lea    0x3785c(%rip),%rcx        # 3dfd5 <_IO_stdin_used+0x675>
    6779:	48 89 df             	mov    %rbx,%rdi
    677c:	41 c1 e8 10          	shr    $0x10,%r8d
    6780:	48 83 ca ff          	or     $0xffffffffffffffff,%rdx
    6784:	be 01 00 00 00       	mov    $0x1,%esi
    6789:	45 0f b6 c0          	movzbl %r8b,%r8d
    678d:	31 c0                	xor    %eax,%eax
    678f:	e8 fc fe ff ff       	callq  6690 <__sprintf_chk@plt>
    6794:	48 98                	cltq   
    6796:	48 01 c3             	add    %rax,%rbx
    6799:	48 8d 0d 35 78 03 00 	lea    0x37835(%rip),%rcx        # 3dfd5 <_IO_stdin_used+0x675>
    67a0:	45 89 e0             	mov    %r12d,%r8d
    67a3:	48 89 df             	mov    %rbx,%rdi
    67a6:	48 83 ca ff          	or     $0xffffffffffffffff,%rdx
    67aa:	be 01 00 00 00       	mov    $0x1,%esi
    67af:	41 c1 e8 18          	shr    $0x18,%r8d
    67b3:	31 c0                	xor    %eax,%eax
    67b5:	e8 d6 fe ff ff       	callq  6690 <__sprintf_chk@plt>
    67ba:	48 98                	cltq   
    67bc:	48 8d 35 22 d5 03 00 	lea    0x3d522(%rip),%rsi        # 43ce5 <meta+0x2605>
    67c3:	b9 0d 00 00 00       	mov    $0xd,%ecx
    67c8:	48 01 c3             	add    %rax,%rbx
    67cb:	48 89 df             	mov    %rbx,%rdi
    67ce:	f3 a4                	rep movsb %ds:(%rsi),%es:(%rdi)
    67d0:	c7 45 60 08 00 00 00 	movl   $0x8,0x60(%rbp)
    67d7:	48 8b 05 da 82 24 00 	mov    0x2482da(%rip),%rax        # 24eab8 <dnsmasq_daemon>
    67de:	48 8b 90 70 01 00 00 	mov    0x170(%rax),%rdx
    67e5:	48 89 55 78          	mov    %rdx,0x78(%rbp)
    67e9:	48 89 a8 70 01 00 00 	mov    %rbp,0x170(%rax)
    67f0:	eb 02                	jmp    67f4 <add_rev4+0x134>
    67f2:	31 ed                	xor    %ebp,%ebp
    67f4:	5a                   	pop    %rdx
    67f5:	48 89 e8             	mov    %rbp,%rax
    67f8:	5b                   	pop    %rbx
    67f9:	5d                   	pop    %rbp
    67fa:	41 5c                	pop    %r12
    67fc:	41 5d                	pop    %r13
    67fe:	c3                   	retq   

00000000000067ff <add_rev6>:
    67ff:	41 56                	push   %r14
    6801:	41 55                	push   %r13
    6803:	49 89 fd             	mov    %rdi,%r13
    6806:	41 54                	push   %r12
    6808:	55                   	push   %rbp
    6809:	bf 80 00 00 00       	mov    $0x80,%edi
    680e:	53                   	push   %rbx
    680f:	89 f5                	mov    %esi,%ebp
    6811:	4c 8d 25 c1 77 03 00 	lea    0x377c1(%rip),%r12        # 3dfd9 <_IO_stdin_used+0x679>
    6818:	ff cd                	dec    %ebp
    681a:	e8 91 c2 00 00       	callq  12ab0 <opt_malloc>
    681f:	48 89 c3             	mov    %rax,%rbx
    6822:	b9 20 00 00 00       	mov    $0x20,%ecx
    6827:	31 c0                	xor    %eax,%eax
    6829:	48 89 df             	mov    %rbx,%rdi
    682c:	f3 ab                	rep stos %eax,%es:(%rdi)
    682e:	bf 49 00 00 00       	mov    $0x49,%edi
    6833:	e8 78 c2 00 00       	callq  12ab0 <opt_malloc>
    6838:	49 89 c6             	mov    %rax,%r14
    683b:	48 89 43 58          	mov    %rax,0x58(%rbx)
    683f:	85 ed                	test   %ebp,%ebp
    6841:	78 3c                	js     687f <add_rev6+0x80>
    6843:	89 e8                	mov    %ebp,%eax
    6845:	c1 f8 03             	sar    $0x3,%eax
    6848:	40 f6 c5 04          	test   $0x4,%bpl
    684c:	48 98                	cltq   
    684e:	45 0f b6 44 05 00    	movzbl 0x0(%r13,%rax,1),%r8d
    6854:	74 06                	je     685c <add_rev6+0x5d>
    6856:	41 83 e0 0f          	and    $0xf,%r8d
    685a:	eb 04                	jmp    6860 <add_rev6+0x61>
    685c:	41 c1 f8 04          	sar    $0x4,%r8d
    6860:	4c 89 f7             	mov    %r14,%rdi
    6863:	4c 89 e1             	mov    %r12,%rcx
    6866:	48 83 ca ff          	or     $0xffffffffffffffff,%rdx
    686a:	be 01 00 00 00       	mov    $0x1,%esi
    686f:	31 c0                	xor    %eax,%eax
    6871:	49 83 c6 02          	add    $0x2,%r14
    6875:	e8 16 fe ff ff       	callq  6690 <__sprintf_chk@plt>
    687a:	83 ed 04             	sub    $0x4,%ebp
    687d:	eb c0                	jmp    683f <add_rev6+0x40>
    687f:	48 b8 69 70 36 2e 61 	movabs $0x617072612e367069,%rax
    6886:	72 70 61 
    6889:	41 c6 46 08 00       	movb   $0x0,0x8(%r14)
    688e:	49 89 06             	mov    %rax,(%r14)
    6891:	48 8b 05 20 82 24 00 	mov    0x248220(%rip),%rax        # 24eab8 <dnsmasq_daemon>
    6898:	c7 43 60 08 00 00 00 	movl   $0x8,0x60(%rbx)
    689f:	48 8b 90 70 01 00 00 	mov    0x170(%rax),%rdx
    68a6:	48 89 53 78          	mov    %rdx,0x78(%rbx)
    68aa:	48 89 98 70 01 00 00 	mov    %rbx,0x170(%rax)
    68b1:	48 89 d8             	mov    %rbx,%rax
    68b4:	5b                   	pop    %rbx
    68b5:	5d                   	pop    %rbp
    68b6:	41 5c                	pop    %r12
    68b8:	41 5d                	pop    %r13
    68ba:	41 5e                	pop    %r14
    68bc:	c3                   	retq   

00000000000068bd <free_space>:
    68bd:	48 8d 87 f0 00 00 00 	lea    0xf0(%rdi),%rax
    68c4:	49 89 c0             	mov    %rax,%r8
    68c7:	41 80 38 00          	cmpb   $0x0,(%r8)
    68cb:	74 0c                	je     68d9 <free_space+0x1c>
    68cd:	45 0f b6 48 01       	movzbl 0x1(%r8),%r9d
    68d2:	4f 8d 44 08 02       	lea    0x2(%r8,%r9,1),%r8
    68d7:	eb ee                	jmp    68c7 <free_space+0xa>
    68d9:	4c 63 c9             	movslq %ecx,%r9
    68dc:	49 83 c1 03          	add    $0x3,%r9
    68e0:	4f 8d 14 08          	lea    (%r8,%r9,1),%r10
    68e4:	4c 39 d6             	cmp    %r10,%rsi
    68e7:	0f 87 bc 00 00 00    	ja     69a9 <free_space+0xec>
    68ed:	40 8a 30             	mov    (%rax),%sil
    68f0:	40 84 f6             	test   %sil,%sil
    68f3:	74 11                	je     6906 <free_space+0x49>
    68f5:	40 80 fe 34          	cmp    $0x34,%sil
    68f9:	74 3b                	je     6936 <free_space+0x79>
    68fb:	0f b6 70 01          	movzbl 0x1(%rax),%esi
    68ff:	48 8d 44 30 02       	lea    0x2(%rax,%rsi,1),%rax
    6904:	eb e7                	jmp    68ed <free_space+0x30>
    6906:	80 7f 6c 00          	cmpb   $0x0,0x6c(%rdi)
    690a:	74 21                	je     692d <free_space+0x70>
    690c:	80 7f 2c 00          	cmpb   $0x0,0x2c(%rdi)
    6910:	74 1b                	je     692d <free_space+0x70>
    6912:	48 8d 35 f7 bf 03 00 	lea    0x3bff7(%rip),%rsi        # 42910 <meta+0x1230>
    6919:	48 83 ec 08          	sub    $0x8,%rsp
    691d:	31 c0                	xor    %eax,%eax
    691f:	bf 1c 00 00 00       	mov    $0x1c,%edi
    6924:	e8 b7 6f 02 00       	callq  2d8e0 <my_syslog>
    6929:	31 c0                	xor    %eax,%eax
    692b:	5a                   	pop    %rdx
    692c:	c3                   	retq   
    692d:	66 41 c7 00 34 01    	movw   $0x134,(%r8)
    6933:	4c 89 c0             	mov    %r8,%rax
    6936:	80 7f 6c 00          	cmpb   $0x0,0x6c(%rdi)
    693a:	75 04                	jne    6940 <free_space+0x83>
    693c:	80 48 02 01          	orb    $0x1,0x2(%rax)
    6940:	40 8a 70 02          	mov    0x2(%rax),%sil
    6944:	4c 8d 47 6c          	lea    0x6c(%rdi),%r8
    6948:	40 f6 c6 01          	test   $0x1,%sil
    694c:	74 22                	je     6970 <free_space+0xb3>
    694e:	41 80 38 00          	cmpb   $0x0,(%r8)
    6952:	74 0c                	je     6960 <free_space+0xa3>
    6954:	45 0f b6 50 01       	movzbl 0x1(%r8),%r10d
    6959:	4f 8d 44 10 02       	lea    0x2(%r8,%r10,1),%r8
    695e:	eb ee                	jmp    694e <free_space+0x91>
    6960:	4f 8d 1c 08          	lea    (%r8,%r9,1),%r11
    6964:	4c 8d 97 ec 00 00 00 	lea    0xec(%rdi),%r10
    696b:	4d 39 d3             	cmp    %r10,%r11
    696e:	72 39                	jb     69a9 <free_space+0xec>
    6970:	80 7f 2c 00          	cmpb   $0x0,0x2c(%rdi)
    6974:	75 07                	jne    697d <free_space+0xc0>
    6976:	83 ce 02             	or     $0x2,%esi
    6979:	40 88 70 02          	mov    %sil,0x2(%rax)
    697d:	f6 40 02 02          	testb  $0x2,0x2(%rax)
    6981:	4c 8d 47 2c          	lea    0x2c(%rdi),%r8
    6985:	74 8b                	je     6912 <free_space+0x55>
    6987:	41 80 38 00          	cmpb   $0x0,(%r8)
    698b:	74 0c                	je     6999 <free_space+0xdc>
    698d:	41 0f b6 40 01       	movzbl 0x1(%r8),%eax
    6992:	4d 8d 44 00 02       	lea    0x2(%r8,%rax,1),%r8
    6997:	eb ee                	jmp    6987 <free_space+0xca>
    6999:	4d 01 c1             	add    %r8,%r9
    699c:	48 83 c7 6c          	add    $0x6c,%rdi
    69a0:	49 39 f9             	cmp    %rdi,%r9
    69a3:	0f 83 69 ff ff ff    	jae    6912 <free_space+0x55>
    69a9:	41 88 10             	mov    %dl,(%r8)
    69ac:	49 8d 40 02          	lea    0x2(%r8),%rax
    69b0:	41 88 48 01          	mov    %cl,0x1(%r8)
    69b4:	c3                   	retq   

00000000000069b5 <option_put>:
    69b5:	55                   	push   %rbp
    69b6:	53                   	push   %rbx
    69b7:	44 89 c5             	mov    %r8d,%ebp
    69ba:	89 cb                	mov    %ecx,%ebx
    69bc:	48 83 ec 08          	sub    $0x8,%rsp
    69c0:	e8 f8 fe ff ff       	callq  68bd <free_space>
    69c5:	48 85 c0             	test   %rax,%rax
    69c8:	74 19                	je     69e3 <option_put+0x2e>
    69ca:	8d 0c dd f8 ff ff ff 	lea    -0x8(,%rbx,8),%ecx
    69d1:	89 ea                	mov    %ebp,%edx
    69d3:	48 ff c0             	inc    %rax
    69d6:	d3 ea                	shr    %cl,%edx
    69d8:	83 e9 08             	sub    $0x8,%ecx
    69db:	88 50 ff             	mov    %dl,-0x1(%rax)
    69de:	83 f9 f8             	cmp    $0xfffffff8,%ecx
    69e1:	75 ee                	jne    69d1 <option_put+0x1c>
    69e3:	58                   	pop    %rax
    69e4:	5b                   	pop    %rbx
    69e5:	5d                   	pop    %rbp
    69e6:	c3                   	retq   

00000000000069e7 <prune_vendor_opts>:
    69e7:	48 8b 05 ca 80 24 00 	mov    0x2480ca(%rip),%rax        # 24eab8 <dnsmasq_daemon>
    69ee:	41 54                	push   %r12
    69f0:	49 89 fc             	mov    %rdi,%r12
    69f3:	55                   	push   %rbp
    69f4:	53                   	push   %rbx
    69f5:	31 ed                	xor    %ebp,%ebp
    69f7:	48 8b 98 20 02 00 00 	mov    0x220(%rax),%rbx
    69fe:	48 85 db             	test   %rbx,%rbx
    6a01:	74 36                	je     6a39 <prune_vendor_opts+0x52>
    6a03:	f6 43 09 04          	testb  $0x4,0x9(%rbx)
    6a07:	74 2a                	je     6a33 <prune_vendor_opts+0x4c>
    6a09:	48 8b 7b 20          	mov    0x20(%rbx),%rdi
    6a0d:	ba 01 00 00 00       	mov    $0x1,%edx
    6a12:	4c 89 e6             	mov    %r12,%rsi
    6a15:	e8 06 de 02 00       	callq  34820 <match_netid>
    6a1a:	85 c0                	test   %eax,%eax
    6a1c:	75 09                	jne    6a27 <prune_vendor_opts+0x40>
    6a1e:	81 63 08 ff fb ff ff 	andl   $0xfffffbff,0x8(%rbx)
    6a25:	eb 0c                	jmp    6a33 <prune_vendor_opts+0x4c>
    6a27:	f6 43 08 10          	testb  $0x10,0x8(%rbx)
    6a2b:	b8 01 00 00 00       	mov    $0x1,%eax
    6a30:	0f 45 e8             	cmovne %eax,%ebp
    6a33:	48 8b 5b 28          	mov    0x28(%rbx),%rbx
    6a37:	eb c5                	jmp    69fe <prune_vendor_opts+0x17>
    6a39:	89 e8                	mov    %ebp,%eax
    6a3b:	5b                   	pop    %rbx
    6a3c:	5d                   	pop    %rbp
    6a3d:	41 5c                	pop    %r12
    6a3f:	c3                   	retq   

0000000000006a40 <option_put_string>:
    6a40:	55                   	push   %rbp
    6a41:	53                   	push   %rbx
    6a42:	48 89 cd             	mov    %rcx,%rbp
    6a45:	31 c0                	xor    %eax,%eax
    6a47:	48 83 c9 ff          	or     $0xffffffffffffffff,%rcx
    6a4b:	49 89 f9             	mov    %rdi,%r9
    6a4e:	48 83 ec 08          	sub    $0x8,%rsp
    6a52:	48 89 ef             	mov    %rbp,%rdi
    6a55:	f2 ae                	repnz scas %es:(%rdi),%al
    6a57:	48 89 cb             	mov    %rcx,%rbx
    6a5a:	48 f7 d3             	not    %rbx
    6a5d:	48 89 d9             	mov    %rbx,%rcx
    6a60:	48 ff cb             	dec    %rbx
    6a63:	48 81 fb ff 00 00 00 	cmp    $0xff,%rbx
    6a6a:	74 08                	je     6a74 <option_put_string+0x34>
    6a6c:	41 80 e0 01          	and    $0x1,%r8b
    6a70:	48 0f 45 d9          	cmovne %rcx,%rbx
    6a74:	89 d9                	mov    %ebx,%ecx
    6a76:	4c 89 cf             	mov    %r9,%rdi
    6a79:	e8 3f fe ff ff       	callq  68bd <free_space>
    6a7e:	48 85 c0             	test   %rax,%rax
    6a81:	74 0b                	je     6a8e <option_put_string+0x4e>
    6a83:	48 89 c7             	mov    %rax,%rdi
    6a86:	48 89 ee             	mov    %rbp,%rsi
    6a89:	48 89 d9             	mov    %rbx,%rcx
    6a8c:	f3 a4                	rep movsb %ds:(%rsi),%es:(%rdi)
    6a8e:	58                   	pop    %rax
    6a8f:	5b                   	pop    %rbx
    6a90:	5d                   	pop    %rbp
    6a91:	c3                   	retq   

0000000000006a92 <pxe_opts>:
    6a92:	41 57                	push   %r15
    6a94:	41 56                	push   %r14
    6a96:	49 89 ce             	mov    %rcx,%r14
    6a99:	41 55                	push   %r13
    6a9b:	41 54                	push   %r12
    6a9d:	41 89 d5             	mov    %edx,%r13d
    6aa0:	55                   	push   %rbp
    6aa1:	53                   	push   %rbx
    6aa2:	48 83 ec 18          	sub    $0x18,%rsp
    6aa6:	48 8b 05 0b 80 24 00 	mov    0x24800b(%rip),%rax        # 24eab8 <dnsmasq_daemon>
    6aad:	48 83 3d 13 7f 24 00 	cmpq   $0x0,0x247f13(%rip)        # 24e9c8 <fake_opts.9196>
    6ab4:	00 
    6ab5:	89 7c 24 04          	mov    %edi,0x4(%rsp)
    6ab9:	48 89 74 24 08       	mov    %rsi,0x8(%rsp)
    6abe:	c6 05 13 7f 24 00 03 	movb   $0x3,0x247f13(%rip)        # 24e9d8 <discovery_control.9194>
    6ac5:	48 8b 80 20 02 00 00 	mov    0x220(%rax),%rax
    6acc:	48 89 05 fd 7e 24 00 	mov    %rax,0x247efd(%rip)        # 24e9d0 <ret.9190>
    6ad3:	75 22                	jne    6af7 <pxe_opts+0x65>
    6ad5:	bf c0 00 00 00       	mov    $0xc0,%edi
    6ada:	e8 31 b1 00 00       	callq  11c10 <whine_malloc>
    6adf:	48 85 c0             	test   %rax,%rax
    6ae2:	48 89 05 df 7e 24 00 	mov    %rax,0x247edf(%rip)        # 24e9c8 <fake_opts.9196>
    6ae9:	75 0c                	jne    6af7 <pxe_opts+0x65>
    6aeb:	48 8b 05 de 7e 24 00 	mov    0x247ede(%rip),%rax        # 24e9d0 <ret.9190>
    6af2:	e9 e7 02 00 00       	jmpq   6dde <pxe_opts+0x34c>
    6af7:	48 8b 05 ca 7e 24 00 	mov    0x247eca(%rip),%rax        # 24e9c8 <fake_opts.9196>
    6afe:	45 31 e4             	xor    %r12d,%r12d
    6b01:	48 8d 50 30          	lea    0x30(%rax),%rdx
    6b05:	c7 40 08 00 04 00 00 	movl   $0x400,0x8(%rax)
    6b0c:	48 c7 40 20 00 00 00 	movq   $0x0,0x20(%rax)
    6b13:	00 
    6b14:	c7 40 38 00 04 00 00 	movl   $0x400,0x38(%rax)
    6b1b:	48 c7 40 50 00 00 00 	movq   $0x0,0x50(%rax)
    6b22:	00 
    6b23:	48 89 50 28          	mov    %rdx,0x28(%rax)
    6b27:	48 8d 50 60          	lea    0x60(%rax),%rdx
    6b2b:	c7 40 68 00 04 00 00 	movl   $0x400,0x68(%rax)
    6b32:	48 c7 80 80 00 00 00 	movq   $0x0,0x80(%rax)
    6b39:	00 00 00 00 
    6b3d:	c7 80 98 00 00 00 00 	movl   $0x400,0x98(%rax)
    6b44:	04 00 00 
    6b47:	48 89 50 58          	mov    %rdx,0x58(%rax)
    6b4b:	48 8d 90 90 00 00 00 	lea    0x90(%rax),%rdx
    6b52:	48 c7 80 b0 00 00 00 	movq   $0x0,0xb0(%rax)
    6b59:	00 00 00 00 
    6b5d:	48 89 90 88 00 00 00 	mov    %rdx,0x88(%rax)
    6b64:	48 8b 15 65 7e 24 00 	mov    0x247e65(%rip),%rdx        # 24e9d0 <ret.9190>
    6b6b:	48 89 90 b8 00 00 00 	mov    %rdx,0xb8(%rax)
    6b72:	48 8b 05 3f 7f 24 00 	mov    0x247f3f(%rip),%rax        # 24eab8 <dnsmasq_daemon>
    6b79:	48 8b a8 60 06 00 00 	mov    0x660(%rax),%rbp
    6b80:	4c 8b b8 70 06 00 00 	mov    0x670(%rax),%r15
    6b87:	48 8b 98 58 02 00 00 	mov    0x258(%rax),%rbx
    6b8e:	48 85 db             	test   %rbx,%rbx
    6b91:	0f 84 18 01 00 00    	je     6caf <pxe_opts+0x21d>
    6b97:	0f b7 03             	movzwl (%rbx),%eax
    6b9a:	3b 44 24 04          	cmp    0x4(%rsp),%eax
    6b9e:	0f 85 02 01 00 00    	jne    6ca6 <pxe_opts+0x214>
    6ba4:	48 8b 7b 28          	mov    0x28(%rbx),%rdi
    6ba8:	48 8b 74 24 08       	mov    0x8(%rsp),%rsi
    6bad:	ba 01 00 00 00       	mov    $0x1,%edx
    6bb2:	e8 69 dc 02 00       	callq  34820 <match_netid>
    6bb7:	85 c0                	test   %eax,%eax
    6bb9:	0f 84 e7 00 00 00    	je     6ca6 <pxe_opts+0x214>
    6bbf:	48 8b 7b 08          	mov    0x8(%rbx),%rdi
    6bc3:	31 c0                	xor    %eax,%eax
    6bc5:	48 83 c9 ff          	or     $0xffffffffffffffff,%rcx
    6bc9:	48 89 ee             	mov    %rbp,%rsi
    6bcc:	f2 ae                	repnz scas %es:(%rdi),%al
    6bce:	48 8b 05 e3 7e 24 00 	mov    0x247ee3(%rip),%rax        # 24eab8 <dnsmasq_daemon>
    6bd5:	48 f7 d1             	not    %rcx
    6bd8:	48 ff c9             	dec    %rcx
    6bdb:	48 2b b0 60 06 00 00 	sub    0x660(%rax),%rsi
    6be2:	48 8d 44 31 03       	lea    0x3(%rcx,%rsi,1),%rax
    6be7:	48 3d fc 00 00 00    	cmp    $0xfc,%rax
    6bed:	77 30                	ja     6c1f <pxe_opts+0x18d>
    6bef:	0f b6 43 03          	movzbl 0x3(%rbx),%eax
    6bf3:	41 ff c4             	inc    %r12d
    6bf6:	88 45 00             	mov    %al,0x0(%rbp)
    6bf9:	66 8b 43 02          	mov    0x2(%rbx),%ax
    6bfd:	88 4d 02             	mov    %cl,0x2(%rbp)
    6c00:	88 45 01             	mov    %al,0x1(%rbp)
    6c03:	48 8d 45 03          	lea    0x3(%rbp),%rax
    6c07:	48 8b 73 08          	mov    0x8(%rbx),%rsi
    6c0b:	48 89 c7             	mov    %rax,%rdi
    6c0e:	44 89 e8             	mov    %r13d,%eax
    6c11:	f3 a4                	rep movsb %ds:(%rsi),%es:(%rdi)
    6c13:	48 83 7b 10 00       	cmpq   $0x0,0x10(%rbx)
    6c18:	48 89 fd             	mov    %rdi,%rbp
    6c1b:	75 3e                	jne    6c5b <pxe_opts+0x1c9>
    6c1d:	eb 26                	jmp    6c45 <pxe_opts+0x1b3>
    6c1f:	48 8d 35 5e bf 03 00 	lea    0x3bf5e(%rip),%rsi        # 42b84 <meta+0x14a4>
    6c26:	31 c0                	xor    %eax,%eax
    6c28:	bf 1b 00 00 00       	mov    $0x1b,%edi
    6c2d:	e8 ae 6c 02 00       	callq  2d8e0 <my_syslog>
    6c32:	48 8b 05 7f 7e 24 00 	mov    0x247e7f(%rip),%rax        # 24eab8 <dnsmasq_daemon>
    6c39:	48 8b 80 20 02 00 00 	mov    0x220(%rax),%rax
    6c40:	e9 99 01 00 00       	jmpq   6dde <pxe_opts+0x34c>
    6c45:	48 8b 7b 18          	mov    0x18(%rbx),%rdi
    6c49:	48 85 ff             	test   %rdi,%rdi
    6c4c:	74 0a                	je     6c58 <pxe_opts+0x1c6>
    6c4e:	4c 89 f6             	mov    %r14,%rsi
    6c51:	e8 da 51 00 00       	callq  be30 <a_record_from_hosts>
    6c56:	eb 03                	jmp    6c5b <pxe_opts+0x1c9>
    6c58:	8b 43 20             	mov    0x20(%rbx),%eax
    6c5b:	85 c0                	test   %eax,%eax
    6c5d:	74 39                	je     6c98 <pxe_opts+0x206>
    6c5f:	48 8b 15 52 7e 24 00 	mov    0x247e52(%rip),%rdx        # 24eab8 <dnsmasq_daemon>
    6c66:	4c 89 ff             	mov    %r15,%rdi
    6c69:	48 2b ba 70 06 00 00 	sub    0x670(%rdx),%rdi
    6c70:	48 81 ff f5 00 00 00 	cmp    $0xf5,%rdi
    6c77:	7f a6                	jg     6c1f <pxe_opts+0x18d>
    6c79:	0f b6 53 03          	movzbl 0x3(%rbx),%edx
    6c7d:	49 83 c7 07          	add    $0x7,%r15
    6c81:	41 88 57 f9          	mov    %dl,-0x7(%r15)
    6c85:	66 8b 53 02          	mov    0x2(%rbx),%dx
    6c89:	41 c6 47 fb 01       	movb   $0x1,-0x5(%r15)
    6c8e:	41 89 47 fc          	mov    %eax,-0x4(%r15)
    6c92:	41 88 57 fa          	mov    %dl,-0x6(%r15)
    6c96:	eb 0e                	jmp    6ca6 <pxe_opts+0x214>
    6c98:	66 83 7b 02 00       	cmpw   $0x0,0x2(%rbx)
    6c9d:	74 07                	je     6ca6 <pxe_opts+0x214>
    6c9f:	c6 05 32 7d 24 00 02 	movb   $0x2,0x247d32(%rip)        # 24e9d8 <discovery_control.9194>
    6ca6:	48 8b 5b 30          	mov    0x30(%rbx),%rbx
    6caa:	e9 df fe ff ff       	jmpq   6b8e <pxe_opts+0xfc>
    6caf:	41 83 fc 01          	cmp    $0x1,%r12d
    6cb3:	48 8b 0d fe 7d 24 00 	mov    0x247dfe(%rip),%rcx        # 24eab8 <dnsmasq_daemon>
    6cba:	0f 9f c0             	setg   %al
    6cbd:	f7 d8                	neg    %eax
    6cbf:	45 85 e4             	test   %r12d,%r12d
    6cc2:	88 05 e8 78 24 00    	mov    %al,0x2478e8(%rip)        # 24e5b0 <fake_prompt.9195>
    6cc8:	48 8b 05 f9 7c 24 00 	mov    0x247cf9(%rip),%rax        # 24e9c8 <fake_opts.9196>
    6ccf:	75 0e                	jne    6cdf <pxe_opts+0x24d>
    6cd1:	c6 05 00 7d 24 00 08 	movb   $0x8,0x247d00(%rip)        # 24e9d8 <discovery_control.9194>
    6cd8:	ba 03 00 00 00       	mov    $0x3,%edx
    6cdd:	eb 69                	jmp    6d48 <pxe_opts+0x2b6>
    6cdf:	48 8d 90 90 00 00 00 	lea    0x90(%rax),%rdx
    6ce6:	48 8b b1 70 06 00 00 	mov    0x670(%rcx),%rsi
    6ced:	49 89 e9             	mov    %rbp,%r9
    6cf0:	48 89 15 d9 7c 24 00 	mov    %rdx,0x247cd9(%rip)        # 24e9d0 <ret.9190>
    6cf7:	48 8b 91 60 06 00 00 	mov    0x660(%rcx),%rdx
    6cfe:	c7 80 90 00 00 00 09 	movl   $0x9,0x90(%rax)
    6d05:	00 00 00 
    6d08:	49 29 d1             	sub    %rdx,%r9
    6d0b:	4c 39 fe             	cmp    %r15,%rsi
    6d0e:	48 89 90 a8 00 00 00 	mov    %rdx,0xa8(%rax)
    6d15:	44 89 88 94 00 00 00 	mov    %r9d,0x94(%rax)
    6d1c:	ba 02 00 00 00       	mov    $0x2,%edx
    6d21:	74 25                	je     6d48 <pxe_opts+0x2b6>
    6d23:	48 8d 50 60          	lea    0x60(%rax),%rdx
    6d27:	4d 89 f8             	mov    %r15,%r8
    6d2a:	48 89 70 78          	mov    %rsi,0x78(%rax)
    6d2e:	49 29 f0             	sub    %rsi,%r8
    6d31:	c7 40 60 08 00 00 00 	movl   $0x8,0x60(%rax)
    6d38:	48 89 15 91 7c 24 00 	mov    %rdx,0x247c91(%rip)        # 24e9d0 <ret.9190>
    6d3f:	44 89 40 64          	mov    %r8d,0x64(%rax)
    6d43:	ba 01 00 00 00       	mov    $0x1,%edx
    6d48:	48 8b 89 20 02 00 00 	mov    0x220(%rcx),%rcx
    6d4f:	31 f6                	xor    %esi,%esi
    6d51:	48 89 0d 68 7c 24 00 	mov    %rcx,0x247c68(%rip)        # 24e9c0 <o.9189>
    6d58:	48 85 c9             	test   %rcx,%rcx
    6d5b:	74 4b                	je     6da8 <pxe_opts+0x316>
    6d5d:	f6 41 09 04          	testb  $0x4,0x9(%rcx)
    6d61:	74 05                	je     6d68 <pxe_opts+0x2d6>
    6d63:	83 39 0a             	cmpl   $0xa,(%rcx)
    6d66:	74 09                	je     6d71 <pxe_opts+0x2df>
    6d68:	48 8b 49 28          	mov    0x28(%rcx),%rcx
    6d6c:	40 b6 01             	mov    $0x1,%sil
    6d6f:	eb e7                	jmp    6d58 <pxe_opts+0x2c6>
    6d71:	40 84 f6             	test   %sil,%sil
    6d74:	74 07                	je     6d7d <pxe_opts+0x2eb>
    6d76:	48 89 0d 43 7c 24 00 	mov    %rcx,0x247c43(%rip)        # 24e9c0 <o.9189>
    6d7d:	48 63 d2             	movslq %edx,%rdx
    6d80:	48 bb 06 00 00 00 01 	movabs $0x100000006,%rbx
    6d87:	00 00 00 
    6d8a:	48 6b d2 30          	imul   $0x30,%rdx,%rdx
    6d8e:	48 01 d0             	add    %rdx,%rax
    6d91:	48 89 18             	mov    %rbx,(%rax)
    6d94:	48 8d 1d 3d 7c 24 00 	lea    0x247c3d(%rip),%rbx        # 24e9d8 <discovery_control.9194>
    6d9b:	48 89 05 2e 7c 24 00 	mov    %rax,0x247c2e(%rip)        # 24e9d0 <ret.9190>
    6da2:	48 89 58 18          	mov    %rbx,0x18(%rax)
    6da6:	eb 36                	jmp    6dde <pxe_opts+0x34c>
    6da8:	40 84 f6             	test   %sil,%sil
    6dab:	74 0b                	je     6db8 <pxe_opts+0x326>
    6dad:	48 c7 05 08 7c 24 00 	movq   $0x0,0x247c08(%rip)        # 24e9c0 <o.9189>
    6db4:	00 00 00 00 
    6db8:	48 63 ca             	movslq %edx,%rcx
    6dbb:	48 8d 3d ee 77 24 00 	lea    0x2477ee(%rip),%rdi        # 24e5b0 <fake_prompt.9195>
    6dc2:	48 bb 0a 00 00 00 04 	movabs $0x40000000a,%rbx
    6dc9:	00 00 00 
    6dcc:	48 6b c9 30          	imul   $0x30,%rcx,%rcx
    6dd0:	ff ca                	dec    %edx
    6dd2:	48 01 c1             	add    %rax,%rcx
    6dd5:	48 89 79 18          	mov    %rdi,0x18(%rcx)
    6dd9:	48 89 19             	mov    %rbx,(%rcx)
    6ddc:	eb 9f                	jmp    6d7d <pxe_opts+0x2eb>
    6dde:	48 83 c4 18          	add    $0x18,%rsp
    6de2:	5b                   	pop    %rbx
    6de3:	5d                   	pop    %rbp
    6de4:	41 5c                	pop    %r12
    6de6:	41 5d                	pop    %r13
    6de8:	41 5e                	pop    %r14
    6dea:	41 5f                	pop    %r15
    6dec:	c3                   	retq   

0000000000006ded <pxe_uefi_workaround>:
    6ded:	83 ff 05             	cmp    $0x5,%edi
    6df0:	0f 8e 44 01 00 00    	jle    6f3a <pxe_uefi_workaround+0x14d>
    6df6:	41 57                	push   %r15
    6df8:	41 56                	push   %r14
    6dfa:	49 89 f7             	mov    %rsi,%r15
    6dfd:	41 55                	push   %r13
    6dff:	41 54                	push   %r12
    6e01:	4d 89 c6             	mov    %r8,%r14
    6e04:	55                   	push   %rbp
    6e05:	53                   	push   %rbx
    6e06:	41 89 fd             	mov    %edi,%r13d
    6e09:	48 89 d3             	mov    %rdx,%rbx
    6e0c:	31 ed                	xor    %ebp,%ebp
    6e0e:	48 83 ec 18          	sub    $0x18,%rsp
    6e12:	48 8b 05 9f 7c 24 00 	mov    0x247c9f(%rip),%rax        # 24eab8 <dnsmasq_daemon>
    6e19:	4c 8b a0 58 02 00 00 	mov    0x258(%rax),%r12
    6e20:	4d 85 e4             	test   %r12,%r12
    6e23:	74 50                	je     6e75 <pxe_uefi_workaround+0x88>
    6e25:	41 0f b7 04 24       	movzwl (%r12),%eax
    6e2a:	44 39 e8             	cmp    %r13d,%eax
    6e2d:	75 3f                	jne    6e6e <pxe_uefi_workaround+0x81>
    6e2f:	49 83 7c 24 10 00    	cmpq   $0x0,0x10(%r12)
    6e35:	74 37                	je     6e6e <pxe_uefi_workaround+0x81>
    6e37:	49 8b 7c 24 28       	mov    0x28(%r12),%rdi
    6e3c:	ba 01 00 00 00       	mov    $0x1,%edx
    6e41:	4c 89 fe             	mov    %r15,%rsi
    6e44:	44 89 4c 24 0c       	mov    %r9d,0xc(%rsp)
    6e49:	89 4c 24 08          	mov    %ecx,0x8(%rsp)
    6e4d:	e8 ce d9 02 00       	callq  34820 <match_netid>
    6e52:	85 c0                	test   %eax,%eax
    6e54:	8b 4c 24 08          	mov    0x8(%rsp),%ecx
    6e58:	44 8b 4c 24 0c       	mov    0xc(%rsp),%r9d
    6e5d:	74 0f                	je     6e6e <pxe_uefi_workaround+0x81>
    6e5f:	48 85 ed             	test   %rbp,%rbp
    6e62:	74 07                	je     6e6b <pxe_uefi_workaround+0x7e>
    6e64:	31 c0                	xor    %eax,%eax
    6e66:	e9 c0 00 00 00       	jmpq   6f2b <pxe_uefi_workaround+0x13e>
    6e6b:	4c 89 e5             	mov    %r12,%rbp
    6e6e:	4d 8b 64 24 30       	mov    0x30(%r12),%r12
    6e73:	eb ab                	jmp    6e20 <pxe_uefi_workaround+0x33>
    6e75:	48 85 ed             	test   %rbp,%rbp
    6e78:	74 ea                	je     6e64 <pxe_uefi_workaround+0x77>
    6e7a:	45 85 c9             	test   %r9d,%r9d
    6e7d:	b8 01 00 00 00       	mov    $0x1,%eax
    6e82:	0f 84 a3 00 00 00    	je     6f2b <pxe_uefi_workaround+0x13e>
    6e88:	48 8b 7d 18          	mov    0x18(%rbp),%rdi
    6e8c:	4c 8d 63 2c          	lea    0x2c(%rbx),%r12
    6e90:	48 85 ff             	test   %rdi,%rdi
    6e93:	74 27                	je     6ebc <pxe_uefi_workaround+0xcf>
    6e95:	4c 89 f6             	mov    %r14,%rsi
    6e98:	e8 93 4f 00 00       	callq  be30 <a_record_from_hosts>
    6e9d:	48 8b 4d 18          	mov    0x18(%rbp),%rcx
    6ea1:	48 8d 15 7f cd 03 00 	lea    0x3cd7f(%rip),%rdx        # 43c27 <meta+0x2547>
    6ea8:	89 43 14             	mov    %eax,0x14(%rbx)
    6eab:	be 40 00 00 00       	mov    $0x40,%esi
    6eb0:	4c 89 e7             	mov    %r12,%rdi
    6eb3:	31 c0                	xor    %eax,%eax
    6eb5:	e8 f6 f1 ff ff       	callq  60b0 <snprintf@plt>
    6eba:	eb 27                	jmp    6ee3 <pxe_uefi_workaround+0xf6>
    6ebc:	83 7d 20 00          	cmpl   $0x0,0x20(%rbp)
    6ec0:	74 08                	je     6eca <pxe_uefi_workaround+0xdd>
    6ec2:	8b 45 20             	mov    0x20(%rbp),%eax
    6ec5:	89 43 14             	mov    %eax,0x14(%rbx)
    6ec8:	eb 03                	jmp    6ecd <pxe_uefi_workaround+0xe0>
    6eca:	89 4b 14             	mov    %ecx,0x14(%rbx)
    6ecd:	48 8d 73 14          	lea    0x14(%rbx),%rsi
    6ed1:	b9 10 00 00 00       	mov    $0x10,%ecx
    6ed6:	4c 89 e2             	mov    %r12,%rdx
    6ed9:	bf 02 00 00 00       	mov    $0x2,%edi
    6ede:	e8 2d ef ff ff       	callq  5e10 <inet_ntop@plt>
    6ee3:	48 8b 6d 10          	mov    0x10(%rbp),%rbp
    6ee7:	be 2e 00 00 00       	mov    $0x2e,%esi
    6eec:	48 89 ef             	mov    %rbp,%rdi
    6eef:	e8 6c f1 ff ff       	callq  6060 <strchr@plt>
    6ef4:	4c 8d 05 9c bc 03 00 	lea    0x3bc9c(%rip),%r8        # 42b97 <meta+0x14b7>
    6efb:	48 85 c0             	test   %rax,%rax
    6efe:	48 8d 05 22 cd 03 00 	lea    0x3cd22(%rip),%rax        # 43c27 <meta+0x2547>
    6f05:	48 8d 7b 6c          	lea    0x6c(%rbx),%rdi
    6f09:	49 89 e9             	mov    %rbp,%r9
    6f0c:	b9 80 00 00 00       	mov    $0x80,%ecx
    6f11:	4c 0f 45 c0          	cmovne %rax,%r8
    6f15:	ba 01 00 00 00       	mov    $0x1,%edx
    6f1a:	be 80 00 00 00       	mov    $0x80,%esi
    6f1f:	31 c0                	xor    %eax,%eax
    6f21:	e8 fa ee ff ff       	callq  5e20 <__snprintf_chk@plt>
    6f26:	b8 01 00 00 00       	mov    $0x1,%eax
    6f2b:	48 83 c4 18          	add    $0x18,%rsp
    6f2f:	5b                   	pop    %rbx
    6f30:	5d                   	pop    %rbp
    6f31:	41 5c                	pop    %r12
    6f33:	41 5d                	pop    %r13
    6f35:	41 5e                	pop    %r14
    6f37:	41 5f                	pop    %r15
    6f39:	c3                   	retq   
    6f3a:	31 c0                	xor    %eax,%eax
    6f3c:	c3                   	retq   

0000000000006f3d <clear_packet>:
    6f3d:	4c 8d 47 2c          	lea    0x2c(%rdi),%r8
    6f41:	48 89 fa             	mov    %rdi,%rdx
    6f44:	31 c0                	xor    %eax,%eax
    6f46:	b9 10 00 00 00       	mov    $0x10,%ecx
    6f4b:	4c 89 c7             	mov    %r8,%rdi
    6f4e:	4c 8d 42 6c          	lea    0x6c(%rdx),%r8
    6f52:	f3 ab                	rep stos %eax,%es:(%rdi)
    6f54:	4c 89 c7             	mov    %r8,%rdi
    6f57:	4c 8d 82 f0 00 00 00 	lea    0xf0(%rdx),%r8
    6f5e:	b9 20 00 00 00       	mov    $0x20,%ecx
    6f63:	4c 29 c6             	sub    %r8,%rsi
    6f66:	f3 ab                	rep stos %eax,%es:(%rdi)
    6f68:	48 89 f1             	mov    %rsi,%rcx
    6f6b:	4c 89 c7             	mov    %r8,%rdi
    6f6e:	f3 aa                	rep stos %al,%es:(%rdi)
    6f70:	c7 42 14 00 00 00 00 	movl   $0x0,0x14(%rdx)
    6f77:	c3                   	retq   

0000000000006f78 <apply_delay>:
    6f78:	41 55                	push   %r13
    6f7a:	41 54                	push   %r12
    6f7c:	49 89 f5             	mov    %rsi,%r13
    6f7f:	55                   	push   %rbp
    6f80:	53                   	push   %rbx
    6f81:	89 fd                	mov    %edi,%ebp
    6f83:	49 89 d4             	mov    %rdx,%r12
    6f86:	48 83 ec 08          	sub    $0x8,%rsp
    6f8a:	48 8b 05 27 7b 24 00 	mov    0x247b27(%rip),%rax        # 24eab8 <dnsmasq_daemon>
    6f91:	48 8b 98 80 02 00 00 	mov    0x280(%rax),%rbx
    6f98:	48 85 db             	test   %rbx,%rbx
    6f9b:	74 18                	je     6fb5 <apply_delay+0x3d>
    6f9d:	48 8b 7b 08          	mov    0x8(%rbx),%rdi
    6fa1:	31 d2                	xor    %edx,%edx
    6fa3:	4c 89 e6             	mov    %r12,%rsi
    6fa6:	e8 75 d8 02 00       	callq  34820 <match_netid>
    6fab:	85 c0                	test   %eax,%eax
    6fad:	75 34                	jne    6fe3 <apply_delay+0x6b>
    6faf:	48 8b 5b 10          	mov    0x10(%rbx),%rbx
    6fb3:	eb e3                	jmp    6f98 <apply_delay+0x20>
    6fb5:	48 8b 05 fc 7a 24 00 	mov    0x247afc(%rip),%rax        # 24eab8 <dnsmasq_daemon>
    6fbc:	48 8b 98 80 02 00 00 	mov    0x280(%rax),%rbx
    6fc3:	48 85 db             	test   %rbx,%rbx
    6fc6:	74 5b                	je     7023 <apply_delay+0xab>
    6fc8:	48 8b 7b 08          	mov    0x8(%rbx),%rdi
    6fcc:	ba 01 00 00 00       	mov    $0x1,%edx
    6fd1:	4c 89 e6             	mov    %r12,%rsi
    6fd4:	e8 47 d8 02 00       	callq  34820 <match_netid>
    6fd9:	85 c0                	test   %eax,%eax
    6fdb:	75 06                	jne    6fe3 <apply_delay+0x6b>
    6fdd:	48 8b 5b 10          	mov    0x10(%rbx),%rbx
    6fe1:	eb e0                	jmp    6fc3 <apply_delay+0x4b>
    6fe3:	48 8b 05 ce 7a 24 00 	mov    0x247ace(%rip),%rax        # 24eab8 <dnsmasq_daemon>
    6fea:	f6 40 05 04          	testb  $0x4,0x5(%rax)
    6fee:	75 19                	jne    7009 <apply_delay+0x91>
    6ff0:	8b 0b                	mov    (%rbx),%ecx
    6ff2:	89 ea                	mov    %ebp,%edx
    6ff4:	48 8d 35 a1 bb 03 00 	lea    0x3bba1(%rip),%rsi        # 42b9c <meta+0x14bc>
    6ffb:	0f ca                	bswap  %edx
    6ffd:	bf 1e 00 00 00       	mov    $0x1e,%edi
    7002:	31 c0                	xor    %eax,%eax
    7004:	e8 d7 68 02 00       	callq  2d8e0 <my_syslog>
    7009:	8b 33                	mov    (%rbx),%esi
    700b:	4c 89 ef             	mov    %r13,%rdi
    700e:	45 31 c0             	xor    %r8d,%r8d
    7011:	41 59                	pop    %r9
    7013:	5b                   	pop    %rbx
    7014:	5d                   	pop    %rbp
    7015:	41 5c                	pop    %r12
    7017:	41 5d                	pop    %r13
    7019:	31 c9                	xor    %ecx,%ecx
    701b:	83 ca ff             	or     $0xffffffff,%edx
    701e:	e9 1d a4 01 00       	jmpq   21440 <delay_dhcp>
    7023:	58                   	pop    %rax
    7024:	5b                   	pop    %rbx
    7025:	5d                   	pop    %rbp
    7026:	41 5c                	pop    %r12
    7028:	41 5d                	pop    %r13
    702a:	c3                   	retq   

000000000000702b <log_options>:
    702b:	55                   	push   %rbp
    702c:	53                   	push   %rbx
    702d:	0f ce                	bswap  %esi
    702f:	48 89 fb             	mov    %rdi,%rbx
    7032:	89 f5                	mov    %esi,%ebp
    7034:	48 83 ec 08          	sub    $0x8,%rsp
    7038:	8a 03                	mov    (%rbx),%al
    703a:	3c ff                	cmp    $0xff,%al
    703c:	74 67                	je     70a5 <log_options+0x7a>
    703e:	0f b6 f0             	movzbl %al,%esi
    7041:	48 8b 05 70 7a 24 00 	mov    0x247a70(%rip),%rax        # 24eab8 <dnsmasq_daemon>
    7048:	0f b6 4b 01          	movzbl 0x1(%rbx),%ecx
    704c:	48 8d 53 02          	lea    0x2(%rbx),%rdx
    7050:	41 b9 01 04 00 00    	mov    $0x401,%r9d
    7056:	bf 02 00 00 00       	mov    $0x2,%edi
    705b:	4c 8b 80 60 03 00 00 	mov    0x360(%rax),%r8
    7062:	e8 29 e2 02 00       	callq  35290 <option_string>
    7067:	49 89 c1             	mov    %rax,%r9
    706a:	48 8b 05 47 7a 24 00 	mov    0x247a47(%rip),%rax        # 24eab8 <dnsmasq_daemon>
    7071:	0f b6 4b 01          	movzbl 0x1(%rbx),%ecx
    7075:	48 83 ec 08          	sub    $0x8,%rsp
    7079:	48 8d 35 d0 b8 03 00 	lea    0x3b8d0(%rip),%rsi        # 42950 <meta+0x1270>
    7080:	89 ea                	mov    %ebp,%edx
    7082:	bf 1e 00 00 00       	mov    $0x1e,%edi
    7087:	ff b0 60 03 00 00    	pushq  0x360(%rax)
    708d:	44 0f b6 03          	movzbl (%rbx),%r8d
    7091:	31 c0                	xor    %eax,%eax
    7093:	e8 48 68 02 00       	callq  2d8e0 <my_syslog>
    7098:	0f b6 43 01          	movzbl 0x1(%rbx),%eax
    709c:	5a                   	pop    %rdx
    709d:	59                   	pop    %rcx
    709e:	48 8d 5c 03 02       	lea    0x2(%rbx,%rax,1),%rbx
    70a3:	eb 93                	jmp    7038 <log_options+0xd>
    70a5:	58                   	pop    %rax
    70a6:	5b                   	pop    %rbx
    70a7:	5d                   	pop    %rbp
    70a8:	c3                   	retq   

00000000000070a9 <dhcp_packet_size>:
    70a9:	41 56                	push   %r14
    70ab:	41 55                	push   %r13
    70ad:	4c 8d af f0 00 00 00 	lea    0xf0(%rdi),%r13
    70b4:	41 54                	push   %r12
    70b6:	49 89 d4             	mov    %rdx,%r12
    70b9:	55                   	push   %rbp
    70ba:	4c 89 ed             	mov    %r13,%rbp
    70bd:	53                   	push   %rbx
    70be:	48 89 fb             	mov    %rdi,%rbx
    70c1:	80 7d 00 00          	cmpb   $0x0,0x0(%rbp)
    70c5:	74 0b                	je     70d2 <dhcp_packet_size+0x29>
    70c7:	0f b6 45 01          	movzbl 0x1(%rbp),%eax
    70cb:	48 8d 6c 05 02       	lea    0x2(%rbp,%rax,1),%rbp
    70d0:	eb ef                	jmp    70c1 <dhcp_packet_size+0x18>
    70d2:	48 85 f6             	test   %rsi,%rsi
    70d5:	74 21                	je     70f8 <dhcp_packet_size+0x4f>
    70d7:	4d 89 e6             	mov    %r12,%r14
    70da:	48 89 ef             	mov    %rbp,%rdi
    70dd:	49 29 f6             	sub    %rsi,%r14
    70e0:	4c 89 f2             	mov    %r14,%rdx
    70e3:	4c 01 f5             	add    %r14,%rbp
    70e6:	e8 a5 f3 ff ff       	callq  6490 <memmove@plt>
    70eb:	4c 89 e1             	mov    %r12,%rcx
    70ee:	31 c0                	xor    %eax,%eax
    70f0:	48 89 ef             	mov    %rbp,%rdi
    70f3:	48 29 e9             	sub    %rbp,%rcx
    70f6:	f3 aa                	rep stos %al,%es:(%rdi)
    70f8:	4d 89 ec             	mov    %r13,%r12
    70fb:	41 8a 04 24          	mov    (%r12),%al
    70ff:	84 c0                	test   %al,%al
    7101:	74 15                	je     7118 <dhcp_packet_size+0x6f>
    7103:	3c 34                	cmp    $0x34,%al
    7105:	0f 84 2f 01 00 00    	je     723a <dhcp_packet_size+0x191>
    710b:	41 0f b6 44 24 01    	movzbl 0x1(%r12),%eax
    7111:	4d 8d 64 04 02       	lea    0x2(%r12,%rax,1),%r12
    7116:	eb e3                	jmp    70fb <dhcp_packet_size+0x52>
    7118:	45 31 e4             	xor    %r12d,%r12d
    711b:	48 8b 05 96 79 24 00 	mov    0x247996(%rip),%rax        # 24eab8 <dnsmasq_daemon>
    7122:	8b 00                	mov    (%rax),%eax
    7124:	0f ba e0 1c          	bt     $0x1c,%eax
    7128:	0f 83 52 01 00 00    	jae    7280 <dhcp_packet_size+0x1d7>
    712e:	80 7b 6c 00          	cmpb   $0x0,0x6c(%rbx)
    7132:	0f 84 56 01 00 00    	je     728e <dhcp_packet_size+0x1e5>
    7138:	8b 53 04             	mov    0x4(%rbx),%edx
    713b:	48 8d 4b 6c          	lea    0x6c(%rbx),%rcx
    713f:	48 8d 35 7f ba 03 00 	lea    0x3ba7f(%rip),%rsi        # 42bc5 <meta+0x14e5>
    7146:	31 c0                	xor    %eax,%eax
    7148:	bf 1e 00 00 00       	mov    $0x1e,%edi
    714d:	0f ca                	bswap  %edx
    714f:	e8 8c 67 02 00       	callq  2d8e0 <my_syslog>
    7154:	4d 85 e4             	test   %r12,%r12
    7157:	74 3b                	je     7194 <dhcp_packet_size+0xeb>
    7159:	41 f6 44 24 02 02    	testb  $0x2,0x2(%r12)
    715f:	74 33                	je     7194 <dhcp_packet_size+0xeb>
    7161:	48 8d 7b 2c          	lea    0x2c(%rbx),%rdi
    7165:	48 89 f8             	mov    %rdi,%rax
    7168:	80 38 00             	cmpb   $0x0,(%rax)
    716b:	74 0b                	je     7178 <dhcp_packet_size+0xcf>
    716d:	0f b6 50 01          	movzbl 0x1(%rax),%edx
    7171:	48 8d 44 10 02       	lea    0x2(%rax,%rdx,1),%rax
    7176:	eb f0                	jmp    7168 <dhcp_packet_size+0xbf>
    7178:	c6 00 ff             	movb   $0xff,(%rax)
    717b:	48 8b 05 36 79 24 00 	mov    0x247936(%rip),%rax        # 24eab8 <dnsmasq_daemon>
    7182:	8b 00                	mov    (%rax),%eax
    7184:	0f ba e0 1c          	bt     $0x1c,%eax
    7188:	73 3b                	jae    71c5 <dhcp_packet_size+0x11c>
    718a:	8b 73 04             	mov    0x4(%rbx),%esi
    718d:	e8 99 fe ff ff       	callq  702b <log_options>
    7192:	eb 31                	jmp    71c5 <dhcp_packet_size+0x11c>
    7194:	48 8b 05 1d 79 24 00 	mov    0x24791d(%rip),%rax        # 24eab8 <dnsmasq_daemon>
    719b:	8b 00                	mov    (%rax),%eax
    719d:	0f ba e0 1c          	bt     $0x1c,%eax
    71a1:	73 22                	jae    71c5 <dhcp_packet_size+0x11c>
    71a3:	80 7b 2c 00          	cmpb   $0x0,0x2c(%rbx)
    71a7:	74 1c                	je     71c5 <dhcp_packet_size+0x11c>
    71a9:	8b 53 04             	mov    0x4(%rbx),%edx
    71ac:	48 8d 4b 2c          	lea    0x2c(%rbx),%rcx
    71b0:	48 8d 35 23 ba 03 00 	lea    0x3ba23(%rip),%rsi        # 42bda <meta+0x14fa>
    71b7:	bf 1e 00 00 00       	mov    $0x1e,%edi
    71bc:	31 c0                	xor    %eax,%eax
    71be:	0f ca                	bswap  %edx
    71c0:	e8 1b 67 02 00       	callq  2d8e0 <my_syslog>
    71c5:	c6 45 00 ff          	movb   $0xff,0x0(%rbp)
    71c9:	48 8b 05 e8 78 24 00 	mov    0x2478e8(%rip),%rax        # 24eab8 <dnsmasq_daemon>
    71d0:	4c 8d 65 01          	lea    0x1(%rbp),%r12
    71d4:	8b 00                	mov    (%rax),%eax
    71d6:	0f ba e0 1c          	bt     $0x1c,%eax
    71da:	0f 83 bc 00 00 00    	jae    729c <dhcp_packet_size+0x1f3>
    71e0:	83 7b 14 00          	cmpl   $0x0,0x14(%rbx)
    71e4:	74 23                	je     7209 <dhcp_packet_size+0x160>
    71e6:	8b 7b 14             	mov    0x14(%rbx),%edi
    71e9:	e8 a2 ed ff ff       	callq  5f90 <inet_ntoa@plt>
    71ee:	8b 53 04             	mov    0x4(%rbx),%edx
    71f1:	48 8d 35 f5 b9 03 00 	lea    0x3b9f5(%rip),%rsi        # 42bed <meta+0x150d>
    71f8:	48 89 c1             	mov    %rax,%rcx
    71fb:	bf 1e 00 00 00       	mov    $0x1e,%edi
    7200:	31 c0                	xor    %eax,%eax
    7202:	0f ca                	bswap  %edx
    7204:	e8 d7 66 02 00       	callq  2d8e0 <my_syslog>
    7209:	f6 43 0a 80          	testb  $0x80,0xa(%rbx)
    720d:	74 1e                	je     722d <dhcp_packet_size+0x184>
    720f:	83 7b 0c 00          	cmpl   $0x0,0xc(%rbx)
    7213:	75 18                	jne    722d <dhcp_packet_size+0x184>
    7215:	8b 53 04             	mov    0x4(%rbx),%edx
    7218:	48 8d 35 e1 b9 03 00 	lea    0x3b9e1(%rip),%rsi        # 42c00 <meta+0x1520>
    721f:	bf 1e 00 00 00       	mov    $0x1e,%edi
    7224:	31 c0                	xor    %eax,%eax
    7226:	0f ca                	bswap  %edx
    7228:	e8 b3 66 02 00       	callq  2d8e0 <my_syslog>
    722d:	8b 73 04             	mov    0x4(%rbx),%esi
    7230:	4c 89 ef             	mov    %r13,%rdi
    7233:	e8 f3 fd ff ff       	callq  702b <log_options>
    7238:	eb 62                	jmp    729c <dhcp_packet_size+0x1f3>
    723a:	41 f6 44 24 02 01    	testb  $0x1,0x2(%r12)
    7240:	0f 84 d5 fe ff ff    	je     711b <dhcp_packet_size+0x72>
    7246:	48 8d 7b 6c          	lea    0x6c(%rbx),%rdi
    724a:	48 89 f8             	mov    %rdi,%rax
    724d:	80 38 00             	cmpb   $0x0,(%rax)
    7250:	74 0b                	je     725d <dhcp_packet_size+0x1b4>
    7252:	0f b6 50 01          	movzbl 0x1(%rax),%edx
    7256:	48 8d 44 10 02       	lea    0x2(%rax,%rdx,1),%rax
    725b:	eb f0                	jmp    724d <dhcp_packet_size+0x1a4>
    725d:	c6 00 ff             	movb   $0xff,(%rax)
    7260:	48 8b 05 51 78 24 00 	mov    0x247851(%rip),%rax        # 24eab8 <dnsmasq_daemon>
    7267:	8b 00                	mov    (%rax),%eax
    7269:	0f ba e0 1c          	bt     $0x1c,%eax
    726d:	0f 83 e6 fe ff ff    	jae    7159 <dhcp_packet_size+0xb0>
    7273:	8b 73 04             	mov    0x4(%rbx),%esi
    7276:	e8 b0 fd ff ff       	callq  702b <log_options>
    727b:	e9 d9 fe ff ff       	jmpq   7159 <dhcp_packet_size+0xb0>
    7280:	4d 85 e4             	test   %r12,%r12
    7283:	0f 84 3c ff ff ff    	je     71c5 <dhcp_packet_size+0x11c>
    7289:	e9 cb fe ff ff       	jmpq   7159 <dhcp_packet_size+0xb0>
    728e:	4d 85 e4             	test   %r12,%r12
    7291:	0f 84 0c ff ff ff    	je     71a3 <dhcp_packet_size+0xfa>
    7297:	e9 bd fe ff ff       	jmpq   7159 <dhcp_packet_size+0xb0>
    729c:	4c 89 e0             	mov    %r12,%rax
    729f:	ba 2c 01 00 00       	mov    $0x12c,%edx
    72a4:	48 29 d8             	sub    %rbx,%rax
    72a7:	48 3d 2c 01 00 00    	cmp    $0x12c,%rax
    72ad:	5b                   	pop    %rbx
    72ae:	48 0f 42 c2          	cmovb  %rdx,%rax
    72b2:	5d                   	pop    %rbp
    72b3:	41 5c                	pop    %r12
    72b5:	41 5d                	pop    %r13
    72b7:	41 5e                	pop    %r14
    72b9:	c3                   	retq   

00000000000072ba <calc_time.isra.1>:
    72ba:	48 85 f6             	test   %rsi,%rsi
    72bd:	74 0a                	je     72c9 <calc_time.isra.1+0xf>
    72bf:	f6 06 08             	testb  $0x8,(%rsi)
    72c2:	74 05                	je     72c9 <calc_time.isra.1+0xf>
    72c4:	8b 76 48             	mov    0x48(%rsi),%esi
    72c7:	eb 02                	jmp    72cb <calc_time.isra.1+0x11>
    72c9:	8b 37                	mov    (%rdi),%esi
    72cb:	48 85 d2             	test   %rdx,%rdx
    72ce:	89 f0                	mov    %esi,%eax
    72d0:	74 31                	je     7303 <calc_time.isra.1+0x49>
    72d2:	31 c0                	xor    %eax,%eax
    72d4:	31 c9                	xor    %ecx,%ecx
    72d6:	0f b6 7c 02 02       	movzbl 0x2(%rdx,%rax,1),%edi
    72db:	c1 e1 08             	shl    $0x8,%ecx
    72de:	48 ff c0             	inc    %rax
    72e1:	09 f9                	or     %edi,%ecx
    72e3:	48 83 f8 04          	cmp    $0x4,%rax
    72e7:	75 ed                	jne    72d6 <calc_time.isra.1+0x1c>
    72e9:	83 f9 78             	cmp    $0x78,%ecx
    72ec:	b8 78 00 00 00       	mov    $0x78,%eax
    72f1:	0f 43 c1             	cmovae %ecx,%eax
    72f4:	83 fe ff             	cmp    $0xffffffff,%esi
    72f7:	74 0a                	je     7303 <calc_time.isra.1+0x49>
    72f9:	ff c1                	inc    %ecx
    72fb:	74 04                	je     7301 <calc_time.isra.1+0x47>
    72fd:	39 c6                	cmp    %eax,%esi
    72ff:	77 02                	ja     7303 <calc_time.isra.1+0x49>
    7301:	89 f0                	mov    %esi,%eax
    7303:	c3                   	retq   

0000000000007304 <do_opt>:
    7304:	44 8b 4f 08          	mov    0x8(%rdi),%r9d
    7308:	49 89 f0             	mov    %rsi,%r8
    730b:	8b 47 04             	mov    0x4(%rdi),%eax
    730e:	41 f6 c1 02          	test   $0x2,%r9b
    7312:	74 0d                	je     7321 <do_opt+0x1d>
    7314:	85 c9                	test   %ecx,%ecx
    7316:	74 09                	je     7321 <do_opt+0x1d>
    7318:	3d ff 00 00 00       	cmp    $0xff,%eax
    731d:	74 02                	je     7321 <do_opt+0x1d>
    731f:	ff c0                	inc    %eax
    7321:	4d 85 c0             	test   %r8,%r8
    7324:	74 4c                	je     7372 <do_opt+0x6e>
    7326:	85 c0                	test   %eax,%eax
    7328:	74 48                	je     7372 <do_opt+0x6e>
    732a:	48 85 d2             	test   %rdx,%rdx
    732d:	48 8b 77 18          	mov    0x18(%rdi),%rsi
    7331:	74 2b                	je     735e <do_opt+0x5a>
    7333:	41 80 e1 01          	and    $0x1,%r9b
    7337:	74 25                	je     735e <do_opt+0x5a>
    7339:	31 c9                	xor    %ecx,%ecx
    733b:	39 4f 04             	cmp    %ecx,0x4(%rdi)
    733e:	7e 1d                	jle    735d <do_opt+0x59>
    7340:	44 8b 0c 0e          	mov    (%rsi,%rcx,1),%r9d
    7344:	45 85 c9             	test   %r9d,%r9d
    7347:	75 0a                	jne    7353 <do_opt+0x4f>
    7349:	44 8b 4a 10          	mov    0x10(%rdx),%r9d
    734d:	45 89 0c 08          	mov    %r9d,(%r8,%rcx,1)
    7351:	eb 04                	jmp    7357 <do_opt+0x53>
    7353:	45 89 0c 08          	mov    %r9d,(%r8,%rcx,1)
    7357:	48 83 c1 04          	add    $0x4,%rcx
    735b:	eb de                	jmp    733b <do_opt+0x37>
    735d:	c3                   	retq   
    735e:	48 85 f6             	test   %rsi,%rsi
    7361:	48 63 c8             	movslq %eax,%rcx
    7364:	75 07                	jne    736d <do_opt+0x69>
    7366:	48 8d 35 78 70 03 00 	lea    0x37078(%rip),%rsi        # 3e3e5 <_IO_stdin_used+0xa85>
    736d:	4c 89 c7             	mov    %r8,%rdi
    7370:	f3 a4                	rep movsb %ds:(%rsi),%es:(%rdi)
    7372:	c3                   	retq   

0000000000007373 <do_encap_opts>:
    7373:	41 57                	push   %r15
    7375:	41 56                	push   %r14
    7377:	41 89 f7             	mov    %esi,%r15d
    737a:	41 55                	push   %r13
    737c:	41 54                	push   %r12
    737e:	49 89 fe             	mov    %rdi,%r14
    7381:	55                   	push   %rbp
    7382:	53                   	push   %rbx
    7383:	89 d5                	mov    %edx,%ebp
    7385:	45 89 cc             	mov    %r9d,%r12d
    7388:	49 89 fd             	mov    %rdi,%r13
    738b:	31 db                	xor    %ebx,%ebx
    738d:	48 83 ec 18          	sub    $0x18,%rsp
    7391:	45 31 db             	xor    %r11d,%r11d
    7394:	48 89 0c 24          	mov    %rcx,(%rsp)
    7398:	4c 89 44 24 08       	mov    %r8,0x8(%rsp)
    739d:	4d 85 ed             	test   %r13,%r13
    73a0:	0f 84 9b 00 00 00    	je     7441 <do_encap_opts+0xce>
    73a6:	41 85 6d 08          	test   %ebp,0x8(%r13)
    73aa:	0f 84 88 00 00 00    	je     7438 <do_encap_opts+0xc5>
    73b0:	31 d2                	xor    %edx,%edx
    73b2:	31 f6                	xor    %esi,%esi
    73b4:	44 89 e1             	mov    %r12d,%ecx
    73b7:	4c 89 ef             	mov    %r13,%rdi
    73ba:	e8 45 ff ff ff       	callq  7304 <do_opt>
    73bf:	8d 58 02             	lea    0x2(%rax),%ebx
    73c2:	41 8d 04 1b          	lea    (%r11,%rbx,1),%eax
    73c6:	3d ff 00 00 00       	cmp    $0xff,%eax
    73cb:	7e 63                	jle    7430 <do_encap_opts+0xbd>
    73cd:	48 8b 74 24 08       	mov    0x8(%rsp),%rsi
    73d2:	48 8b 3c 24          	mov    (%rsp),%rdi
    73d6:	44 89 d9             	mov    %r11d,%ecx
    73d9:	44 89 fa             	mov    %r15d,%edx
    73dc:	e8 dc f4 ff ff       	callq  68bd <free_space>
    73e1:	49 89 c3             	mov    %rax,%r11
    73e4:	4d 85 f6             	test   %r14,%r14
    73e7:	74 3a                	je     7423 <do_encap_opts+0xb0>
    73e9:	4d 39 f5             	cmp    %r14,%r13
    73ec:	74 35                	je     7423 <do_encap_opts+0xb0>
    73ee:	4d 85 db             	test   %r11,%r11
    73f1:	74 2a                	je     741d <do_encap_opts+0xaa>
    73f3:	41 85 6e 08          	test   %ebp,0x8(%r14)
    73f7:	74 24                	je     741d <do_encap_opts+0xaa>
    73f9:	4d 8d 53 02          	lea    0x2(%r11),%r10
    73fd:	31 d2                	xor    %edx,%edx
    73ff:	44 89 e1             	mov    %r12d,%ecx
    7402:	4c 89 f7             	mov    %r14,%rdi
    7405:	4c 89 d6             	mov    %r10,%rsi
    7408:	e8 f7 fe ff ff       	callq  7304 <do_opt>
    740d:	41 8b 16             	mov    (%r14),%edx
    7410:	41 88 43 01          	mov    %al,0x1(%r11)
    7414:	48 98                	cltq   
    7416:	41 88 13             	mov    %dl,(%r11)
    7419:	4d 8d 1c 02          	lea    (%r10,%rax,1),%r11
    741d:	4d 8b 76 28          	mov    0x28(%r14),%r14
    7421:	eb c1                	jmp    73e4 <do_encap_opts+0x71>
    7423:	41 89 db             	mov    %ebx,%r11d
    7426:	4d 89 ee             	mov    %r13,%r14
    7429:	bb 01 00 00 00       	mov    $0x1,%ebx
    742e:	eb 08                	jmp    7438 <do_encap_opts+0xc5>
    7430:	41 89 c3             	mov    %eax,%r11d
    7433:	bb 01 00 00 00       	mov    $0x1,%ebx
    7438:	4d 8b 6d 28          	mov    0x28(%r13),%r13
    743c:	e9 5c ff ff ff       	jmpq   739d <do_encap_opts+0x2a>
    7441:	45 85 db             	test   %r11d,%r11d
    7444:	74 57                	je     749d <do_encap_opts+0x12a>
    7446:	48 8b 74 24 08       	mov    0x8(%rsp),%rsi
    744b:	48 8b 3c 24          	mov    (%rsp),%rdi
    744f:	41 8d 4b 01          	lea    0x1(%r11),%ecx
    7453:	44 89 fa             	mov    %r15d,%edx
    7456:	e8 62 f4 ff ff       	callq  68bd <free_space>
    745b:	48 85 c0             	test   %rax,%rax
    745e:	49 89 c3             	mov    %rax,%r11
    7461:	74 3a                	je     749d <do_encap_opts+0x12a>
    7463:	4d 85 f6             	test   %r14,%r14
    7466:	74 31                	je     7499 <do_encap_opts+0x126>
    7468:	41 85 6e 08          	test   %ebp,0x8(%r14)
    746c:	74 25                	je     7493 <do_encap_opts+0x120>
    746e:	4d 8d 6b 02          	lea    0x2(%r11),%r13
    7472:	31 d2                	xor    %edx,%edx
    7474:	44 89 e1             	mov    %r12d,%ecx
    7477:	4c 89 f7             	mov    %r14,%rdi
    747a:	4c 89 ee             	mov    %r13,%rsi
    747d:	e8 82 fe ff ff       	callq  7304 <do_opt>
    7482:	41 8b 16             	mov    (%r14),%edx
    7485:	41 88 43 01          	mov    %al,0x1(%r11)
    7489:	48 98                	cltq   
    748b:	41 88 13             	mov    %dl,(%r11)
    748e:	4d 8d 5c 05 00       	lea    0x0(%r13,%rax,1),%r11
    7493:	4d 8b 76 28          	mov    0x28(%r14),%r14
    7497:	eb ca                	jmp    7463 <do_encap_opts+0xf0>
    7499:	41 c6 03 ff          	movb   $0xff,(%r11)
    749d:	48 83 c4 18          	add    $0x18,%rsp
    74a1:	89 d8                	mov    %ebx,%eax
    74a3:	5b                   	pop    %rbx
    74a4:	5d                   	pop    %rbp
    74a5:	41 5c                	pop    %r12
    74a7:	41 5d                	pop    %r13
    74a9:	41 5e                	pop    %r14
    74ab:	41 5f                	pop    %r15
    74ad:	c3                   	retq   

00000000000074ae <in_list.part.3>:
    74ae:	0f b6 07             	movzbl (%rdi),%eax
    74b1:	3c ff                	cmp    $0xff,%al
    74b3:	74 0d                	je     74c2 <in_list.part.3+0x14>
    74b5:	48 ff c7             	inc    %rdi
    74b8:	39 f0                	cmp    %esi,%eax
    74ba:	75 f2                	jne    74ae <in_list.part.3>
    74bc:	b8 01 00 00 00       	mov    $0x1,%eax
    74c1:	c3                   	retq   
    74c2:	31 c0                	xor    %eax,%eax
    74c4:	c3                   	retq   

00000000000074c5 <add_extradata_opt.part.4>:
    74c5:	31 c9                	xor    %ecx,%ecx
    74c7:	31 d2                	xor    %edx,%edx
    74c9:	31 f6                	xor    %esi,%esi
    74cb:	e9 e0 de 01 00       	jmpq   253b0 <lease_add_extradata>

00000000000074d0 <add_extradata_opt>:
    74d0:	48 85 f6             	test   %rsi,%rsi
    74d3:	75 02                	jne    74d7 <add_extradata_opt+0x7>
    74d5:	eb ee                	jmp    74c5 <add_extradata_opt.part.4>
    74d7:	0f b6 56 01          	movzbl 0x1(%rsi),%edx
    74db:	31 c9                	xor    %ecx,%ecx
    74dd:	48 83 c6 02          	add    $0x2,%rsi
    74e1:	e9 ca de 01 00       	jmpq   253b0 <lease_add_extradata>

00000000000074e6 <pxe_misc>:
    74e6:	41 54                	push   %r12
    74e8:	48 8d 0d 41 6c 03 00 	lea    0x36c41(%rip),%rcx        # 3e130 <_IO_stdin_used+0x7d0>
    74ef:	55                   	push   %rbp
    74f0:	53                   	push   %rbx
    74f1:	45 31 c0             	xor    %r8d,%r8d
    74f4:	48 89 d3             	mov    %rdx,%rbx
    74f7:	ba 3c 00 00 00       	mov    $0x3c,%edx
    74fc:	48 89 fd             	mov    %rdi,%rbp
    74ff:	49 89 f4             	mov    %rsi,%r12
    7502:	e8 39 f5 ff ff       	callq  6a40 <option_put_string>
    7507:	48 85 db             	test   %rbx,%rbx
    750a:	74 26                	je     7532 <pxe_misc+0x4c>
    750c:	b9 11 00 00 00       	mov    $0x11,%ecx
    7511:	ba 61 00 00 00       	mov    $0x61,%edx
    7516:	4c 89 e6             	mov    %r12,%rsi
    7519:	48 89 ef             	mov    %rbp,%rdi
    751c:	e8 9c f3 ff ff       	callq  68bd <free_space>
    7521:	48 85 c0             	test   %rax,%rax
    7524:	74 0c                	je     7532 <pxe_misc+0x4c>
    7526:	0f 28 03             	movaps (%rbx),%xmm0
    7529:	0f 11 00             	movups %xmm0,(%rax)
    752c:	8a 53 10             	mov    0x10(%rbx),%dl
    752f:	88 50 10             	mov    %dl,0x10(%rax)
    7532:	5b                   	pop    %rbx
    7533:	5d                   	pop    %rbp
    7534:	41 5c                	pop    %r12
    7536:	c3                   	retq   

0000000000007537 <do_options>:
    7537:	41 57                	push   %r15
    7539:	41 56                	push   %r14
    753b:	4d 89 cf             	mov    %r9,%r15
    753e:	41 55                	push   %r13
    7540:	41 54                	push   %r12
    7542:	49 89 fe             	mov    %rdi,%r14
    7545:	55                   	push   %rbp
    7546:	53                   	push   %rbx
    7547:	49 89 f4             	mov    %rsi,%r12
    754a:	49 89 cd             	mov    %rcx,%r13
    754d:	48 83 ec 58          	sub    $0x58,%rsp
    7551:	48 85 ff             	test   %rdi,%rdi
    7554:	8b 84 24 a0 00 00 00 	mov    0xa0(%rsp),%eax
    755b:	48 89 54 24 08       	mov    %rdx,0x8(%rsp)
    7560:	4c 89 44 24 18       	mov    %r8,0x18(%rsp)
    7565:	89 44 24 34          	mov    %eax,0x34(%rsp)
    7569:	8b 84 24 d8 00 00 00 	mov    0xd8(%rsp),%eax
    7570:	66 89 44 24 3c       	mov    %ax,0x3c(%rsp)
    7575:	48 8b 05 3c 75 24 00 	mov    0x24753c(%rip),%rax        # 24eab8 <dnsmasq_daemon>
    757c:	48 8b 80 20 02 00 00 	mov    0x220(%rax),%rax
    7583:	48 89 44 24 10       	mov    %rax,0x10(%rsp)
    7588:	75 04                	jne    758e <do_options+0x57>
    758a:	31 f6                	xor    %esi,%esi
    758c:	eb 1c                	jmp    75aa <do_options+0x73>
    758e:	48 83 bf 90 00 00 00 	cmpq   $0x0,0x90(%rdi)
    7595:	00 
    7596:	48 c7 87 98 00 00 00 	movq   $0x0,0x98(%rdi)
    759d:	00 00 00 00 
    75a1:	74 e7                	je     758a <do_options+0x53>
    75a3:	48 8d b7 90 00 00 00 	lea    0x90(%rdi),%rsi
    75aa:	48 8b 54 24 10       	mov    0x10(%rsp),%rdx
    75af:	48 8b bc 24 90 00 00 	mov    0x90(%rsp),%rdi
    75b6:	00 
    75b7:	e8 04 d0 02 00       	callq  345c0 <option_filter>
    75bc:	48 89 44 24 28       	mov    %rax,0x28(%rsp)
    75c1:	48 8b 05 f0 74 24 00 	mov    0x2474f0(%rip),%rax        # 24eab8 <dnsmasq_daemon>
    75c8:	4d 85 ed             	test   %r13,%r13
    75cb:	0f 95 44 24 20       	setne  0x20(%rsp)
    75d0:	8b 10                	mov    (%rax),%edx
    75d2:	0f ba e2 1c          	bt     $0x1c,%edx
    75d6:	73 07                	jae    75df <do_options+0xa8>
    75d8:	80 7c 24 20 00       	cmpb   $0x0,0x20(%rsp)
    75dd:	75 13                	jne    75f2 <do_options+0xbb>
    75df:	48 8b 05 d2 74 24 00 	mov    0x2474d2(%rip),%rax        # 24eab8 <dnsmasq_daemon>
    75e6:	48 8b a8 b0 02 00 00 	mov    0x2b0(%rax),%rbp
    75ed:	e9 0a 01 00 00       	jmpq   76fc <do_options+0x1c5>
    75f2:	48 8b 98 60 03 00 00 	mov    0x360(%rax),%rbx
    75f9:	4c 89 ed             	mov    %r13,%rbp
    75fc:	0f b6 75 00          	movzbl 0x0(%rbp),%esi
    7600:	40 80 fe ff          	cmp    $0xff,%sil
    7604:	74 d9                	je     75df <do_options+0xa8>
    7606:	45 31 c9             	xor    %r9d,%r9d
    7609:	45 31 c0             	xor    %r8d,%r8d
    760c:	31 c9                	xor    %ecx,%ecx
    760e:	31 d2                	xor    %edx,%edx
    7610:	bf 02 00 00 00       	mov    $0x2,%edi
    7615:	e8 76 dc 02 00       	callq  35290 <option_string>
    761a:	80 7d 01 ff          	cmpb   $0xff,0x1(%rbp)
    761e:	48 8d 35 79 6d 03 00 	lea    0x36d79(%rip),%rsi        # 3e39e <_IO_stdin_used+0xa3e>
    7625:	48 8d 0d b9 6d 03 00 	lea    0x36db9(%rip),%rcx        # 3e3e5 <_IO_stdin_used+0xa85>
    762c:	48 8d 15 c0 6a 03 00 	lea    0x36ac0(%rip),%rdx        # 3e0f3 <_IO_stdin_used+0x793>
    7633:	48 89 df             	mov    %rbx,%rdi
    7636:	4c 8d 05 d9 b5 03 00 	lea    0x3b5d9(%rip),%r8        # 42c16 <meta+0x1536>
    763d:	48 0f 45 ce          	cmovne %rsi,%rcx
    7641:	80 38 00             	cmpb   $0x0,(%rax)
    7644:	48 8d 35 9a 6d 03 00 	lea    0x36d9a(%rip),%rsi        # 3e3e5 <_IO_stdin_used+0xa85>
    764b:	48 0f 44 d6          	cmove  %rsi,%rdx
    764f:	48 8b 35 62 74 24 00 	mov    0x247462(%rip),%rsi        # 24eab8 <dnsmasq_daemon>
    7656:	48 83 ec 08          	sub    $0x8,%rsp
    765a:	48 2b be 60 03 00 00 	sub    0x360(%rsi),%rdi
    7661:	51                   	push   %rcx
    7662:	48 83 c9 ff          	or     $0xffffffffffffffff,%rcx
    7666:	50                   	push   %rax
    7667:	52                   	push   %rdx
    7668:	31 c0                	xor    %eax,%eax
    766a:	44 0f b6 4d 00       	movzbl 0x0(%rbp),%r9d
    766f:	ba 01 00 00 00       	mov    $0x1,%edx
    7674:	48 89 fe             	mov    %rdi,%rsi
    7677:	bf 01 04 00 00       	mov    $0x401,%edi
    767c:	48 29 f7             	sub    %rsi,%rdi
    767f:	48 89 fe             	mov    %rdi,%rsi
    7682:	48 89 df             	mov    %rbx,%rdi
    7685:	e8 96 e7 ff ff       	callq  5e20 <__snprintf_chk@plt>
    768a:	48 98                	cltq   
    768c:	48 83 c4 20          	add    $0x20,%rsp
    7690:	48 01 c3             	add    %rax,%rbx
    7693:	80 7d 01 ff          	cmpb   $0xff,0x1(%rbp)
    7697:	48 8b 05 1a 74 24 00 	mov    0x24741a(%rip),%rax        # 24eab8 <dnsmasq_daemon>
    769e:	74 10                	je     76b0 <do_options+0x179>
    76a0:	48 89 da             	mov    %rbx,%rdx
    76a3:	48 2b 90 60 03 00 00 	sub    0x360(%rax),%rdx
    76aa:	48 83 fa 28          	cmp    $0x28,%rdx
    76ae:	7e 24                	jle    76d4 <do_options+0x19d>
    76b0:	48 8b 98 60 03 00 00 	mov    0x360(%rax),%rbx
    76b7:	41 8b 54 24 04       	mov    0x4(%r12),%edx
    76bc:	48 8d 35 5c b5 03 00 	lea    0x3b55c(%rip),%rsi        # 42c1f <meta+0x153f>
    76c3:	bf 1e 00 00 00       	mov    $0x1e,%edi
    76c8:	31 c0                	xor    %eax,%eax
    76ca:	0f ca                	bswap  %edx
    76cc:	48 89 d9             	mov    %rbx,%rcx
    76cf:	e8 0c 62 02 00       	callq  2d8e0 <my_syslog>
    76d4:	48 ff c5             	inc    %rbp
    76d7:	e9 20 ff ff ff       	jmpq   75fc <do_options+0xc5>
    76dc:	48 8b 7d 00          	mov    0x0(%rbp),%rdi
    76e0:	48 85 ff             	test   %rdi,%rdi
    76e3:	74 1e                	je     7703 <do_options+0x1cc>
    76e5:	48 8b b4 24 90 00 00 	mov    0x90(%rsp),%rsi
    76ec:	00 
    76ed:	31 d2                	xor    %edx,%edx
    76ef:	e8 2c d1 02 00       	callq  34820 <match_netid>
    76f4:	85 c0                	test   %eax,%eax
    76f6:	75 0b                	jne    7703 <do_options+0x1cc>
    76f8:	48 8b 6d 08          	mov    0x8(%rbp),%rbp
    76fc:	48 85 ed             	test   %rbp,%rbp
    76ff:	75 db                	jne    76dc <do_options+0x1a5>
    7701:	eb 08                	jmp    770b <do_options+0x1d4>
    7703:	66 41 81 4c 24 0a 80 	orw    $0x80,0xa(%r12)
    770a:	00 
    770b:	4d 85 f6             	test   %r14,%r14
    770e:	74 09                	je     7719 <do_options+0x1e2>
    7710:	41 8b 46 10          	mov    0x10(%r14),%eax
    7714:	41 89 44 24 14       	mov    %eax,0x14(%r12)
    7719:	48 8b 7c 24 28       	mov    0x28(%rsp),%rdi
    771e:	e8 6d e2 01 00       	callq  25990 <find_boot>
    7723:	48 85 c0             	test   %rax,%rax
    7726:	48 89 c5             	mov    %rax,%rbp
    7729:	0f 84 03 01 00 00    	je     7832 <do_options+0x2fb>
    772f:	48 8b 48 08          	mov    0x8(%rax),%rcx
    7733:	48 85 c9             	test   %rcx,%rcx
    7736:	74 53                	je     778b <do_options+0x254>
    7738:	48 8b 05 79 73 24 00 	mov    0x247379(%rip),%rax        # 24eab8 <dnsmasq_daemon>
    773f:	8b 00                	mov    (%rax),%eax
    7741:	0f ba e0 1e          	bt     $0x1e,%eax
    7745:	72 32                	jb     7779 <do_options+0x242>
    7747:	80 7c 24 20 00       	cmpb   $0x0,0x20(%rsp)
    774c:	74 2b                	je     7779 <do_options+0x242>
    774e:	be 42 00 00 00       	mov    $0x42,%esi
    7753:	4c 89 ef             	mov    %r13,%rdi
    7756:	e8 53 fd ff ff       	callq  74ae <in_list.part.3>
    775b:	85 c0                	test   %eax,%eax
    775d:	74 1a                	je     7779 <do_options+0x242>
    775f:	48 8b 74 24 08       	mov    0x8(%rsp),%rsi
    7764:	41 b8 01 00 00 00    	mov    $0x1,%r8d
    776a:	ba 42 00 00 00       	mov    $0x42,%edx
    776f:	4c 89 e7             	mov    %r12,%rdi
    7772:	e8 c9 f2 ff ff       	callq  6a40 <option_put_string>
    7777:	eb 12                	jmp    778b <do_options+0x254>
    7779:	49 8d 7c 24 2c       	lea    0x2c(%r12),%rdi
    777e:	ba 3f 00 00 00       	mov    $0x3f,%edx
    7783:	48 89 ce             	mov    %rcx,%rsi
    7786:	e8 15 e7 ff ff       	callq  5ea0 <strncpy@plt>
    778b:	48 8b 4d 00          	mov    0x0(%rbp),%rcx
    778f:	48 85 c9             	test   %rcx,%rcx
    7792:	74 53                	je     77e7 <do_options+0x2b0>
    7794:	48 8b 05 1d 73 24 00 	mov    0x24731d(%rip),%rax        # 24eab8 <dnsmasq_daemon>
    779b:	8b 00                	mov    (%rax),%eax
    779d:	0f ba e0 1e          	bt     $0x1e,%eax
    77a1:	72 32                	jb     77d5 <do_options+0x29e>
    77a3:	80 7c 24 20 00       	cmpb   $0x0,0x20(%rsp)
    77a8:	74 2b                	je     77d5 <do_options+0x29e>
    77aa:	be 43 00 00 00       	mov    $0x43,%esi
    77af:	4c 89 ef             	mov    %r13,%rdi
    77b2:	e8 f7 fc ff ff       	callq  74ae <in_list.part.3>
    77b7:	85 c0                	test   %eax,%eax
    77b9:	74 1a                	je     77d5 <do_options+0x29e>
    77bb:	48 8b 74 24 08       	mov    0x8(%rsp),%rsi
    77c0:	41 b8 01 00 00 00    	mov    $0x1,%r8d
    77c6:	ba 43 00 00 00       	mov    $0x43,%edx
    77cb:	4c 89 e7             	mov    %r12,%rdi
    77ce:	e8 6d f2 ff ff       	callq  6a40 <option_put_string>
    77d3:	eb 12                	jmp    77e7 <do_options+0x2b0>
    77d5:	49 8d 7c 24 6c       	lea    0x6c(%r12),%rdi
    77da:	ba 7f 00 00 00       	mov    $0x7f,%edx
    77df:	48 89 ce             	mov    %rcx,%rsi
    77e2:	e8 b9 e6 ff ff       	callq  5ea0 <strncpy@plt>
    77e7:	83 7d 18 00          	cmpl   $0x0,0x18(%rbp)
    77eb:	74 17                	je     7804 <do_options+0x2cd>
    77ed:	8b 45 18             	mov    0x18(%rbp),%eax
    77f0:	c7 44 24 20 00 00 00 	movl   $0x0,0x20(%rsp)
    77f7:	00 
    77f8:	31 ed                	xor    %ebp,%ebp
    77fa:	41 89 44 24 14       	mov    %eax,0x14(%r12)
    77ff:	e9 0f 01 00 00       	jmpq   7913 <do_options+0x3dc>
    7804:	48 8b 7d 10          	mov    0x10(%rbp),%rdi
    7808:	48 85 ff             	test   %rdi,%rdi
    780b:	0f 84 f8 00 00 00    	je     7909 <do_options+0x3d2>
    7811:	48 8b b4 24 c8 00 00 	mov    0xc8(%rsp),%rsi
    7818:	00 
    7819:	31 ed                	xor    %ebp,%ebp
    781b:	e8 10 46 00 00       	callq  be30 <a_record_from_hosts>
    7820:	c7 44 24 20 00 00 00 	movl   $0x0,0x20(%rsp)
    7827:	00 
    7828:	41 89 44 24 14       	mov    %eax,0x14(%r12)
    782d:	e9 e1 00 00 00       	jmpq   7913 <do_options+0x3dc>
    7832:	4d 85 ed             	test   %r13,%r13
    7835:	74 11                	je     7848 <do_options+0x311>
    7837:	be 43 00 00 00       	mov    $0x43,%esi
    783c:	4c 89 ef             	mov    %r13,%rdi
    783f:	e8 6a fc ff ff       	callq  74ae <in_list.part.3>
    7844:	85 c0                	test   %eax,%eax
    7846:	75 2f                	jne    7877 <do_options+0x340>
    7848:	48 8b 05 69 72 24 00 	mov    0x247269(%rip),%rax        # 24eab8 <dnsmasq_daemon>
    784f:	48 8b 80 20 02 00 00 	mov    0x220(%rax),%rax
    7856:	48 85 c0             	test   %rax,%rax
    7859:	0f 84 e7 09 00 00    	je     8246 <do_options+0xd0f>
    785f:	83 38 43             	cmpl   $0x43,(%rax)
    7862:	75 0d                	jne    7871 <do_options+0x33a>
    7864:	8b 50 08             	mov    0x8(%rax),%edx
    7867:	0f ba e2 0c          	bt     $0xc,%edx
    786b:	0f 82 a7 09 00 00    	jb     8218 <do_options+0xce1>
    7871:	48 8b 40 28          	mov    0x28(%rax),%rax
    7875:	eb df                	jmp    7856 <do_options+0x31f>
    7877:	c7 44 24 20 00 00 00 	movl   $0x0,0x20(%rsp)
    787e:	00 
    787f:	be 42 00 00 00       	mov    $0x42,%esi
    7884:	4c 89 ef             	mov    %r13,%rdi
    7887:	31 ed                	xor    %ebp,%ebp
    7889:	e8 20 fc ff ff       	callq  74ae <in_list.part.3>
    788e:	85 c0                	test   %eax,%eax
    7890:	75 4c                	jne    78de <do_options+0x3a7>
    7892:	48 8b 05 1f 72 24 00 	mov    0x24721f(%rip),%rax        # 24eab8 <dnsmasq_daemon>
    7899:	48 8b 80 20 02 00 00 	mov    0x220(%rax),%rax
    78a0:	48 85 c0             	test   %rax,%rax
    78a3:	0f 84 a7 09 00 00    	je     8250 <do_options+0xd19>
    78a9:	83 38 42             	cmpl   $0x42,(%rax)
    78ac:	75 09                	jne    78b7 <do_options+0x380>
    78ae:	8b 50 08             	mov    0x8(%rax),%edx
    78b1:	0f ba e2 0c          	bt     $0xc,%edx
    78b5:	72 06                	jb     78bd <do_options+0x386>
    78b7:	48 8b 40 28          	mov    0x28(%rax),%rax
    78bb:	eb e3                	jmp    78a0 <do_options+0x369>
    78bd:	80 e2 10             	and    $0x10,%dl
    78c0:	0f 85 8a 09 00 00    	jne    8250 <do_options+0xd19>
    78c6:	48 8b 70 18          	mov    0x18(%rax),%rsi
    78ca:	49 8d 7c 24 2c       	lea    0x2c(%r12),%rdi
    78cf:	ba 3f 00 00 00       	mov    $0x3f,%edx
    78d4:	bd 01 00 00 00       	mov    $0x1,%ebp
    78d9:	e8 c2 e5 ff ff       	callq  5ea0 <strncpy@plt>
    78de:	48 8b 05 d3 71 24 00 	mov    0x2471d3(%rip),%rax        # 24eab8 <dnsmasq_daemon>
    78e5:	48 8b 80 20 02 00 00 	mov    0x220(%rax),%rax
    78ec:	48 85 c0             	test   %rax,%rax
    78ef:	74 22                	je     7913 <do_options+0x3dc>
    78f1:	81 38 ff 00 00 00    	cmpl   $0xff,(%rax)
    78f7:	75 0a                	jne    7903 <do_options+0x3cc>
    78f9:	f6 40 09 10          	testb  $0x10,0x9(%rax)
    78fd:	0f 85 54 09 00 00    	jne    8257 <do_options+0xd20>
    7903:	48 8b 40 28          	mov    0x28(%rax),%rax
    7907:	eb e3                	jmp    78ec <do_options+0x3b5>
    7909:	31 ed                	xor    %ebp,%ebp
    790b:	c7 44 24 20 00 00 00 	movl   $0x0,0x20(%rsp)
    7912:	00 
    7913:	4d 85 ed             	test   %r13,%r13
    7916:	74 0f                	je     7927 <do_options+0x3f0>
    7918:	48 8b 05 99 71 24 00 	mov    0x247199(%rip),%rax        # 24eab8 <dnsmasq_daemon>
    791f:	8b 00                	mov    (%rax),%eax
    7921:	0f ba e0 1e          	bt     $0x1e,%eax
    7925:	73 20                	jae    7947 <do_options+0x410>
    7927:	41 8a 44 24 6c       	mov    0x6c(%r12),%al
    792c:	41 c6 44 24 6c 01    	movb   $0x1,0x6c(%r12)
    7932:	88 44 24 3a          	mov    %al,0x3a(%rsp)
    7936:	41 8a 44 24 2c       	mov    0x2c(%r12),%al
    793b:	41 c6 44 24 2c 01    	movb   $0x1,0x2c(%r12)
    7941:	88 44 24 3b          	mov    %al,0x3b(%rsp)
    7945:	eb 0a                	jmp    7951 <do_options+0x41a>
    7947:	c6 44 24 3b 00       	movb   $0x0,0x3b(%rsp)
    794c:	c6 44 24 3a 00       	movb   $0x0,0x3a(%rsp)
    7951:	41 80 7c 24 6c 00    	cmpb   $0x0,0x6c(%r12)
    7957:	74 08                	je     7961 <do_options+0x42a>
    7959:	41 80 7c 24 2c 00    	cmpb   $0x0,0x2c(%r12)
    795f:	75 06                	jne    7967 <do_options+0x430>
    7961:	48 83 6c 24 08 03    	subq   $0x3,0x8(%rsp)
    7967:	83 bc 24 98 00 00 00 	cmpl   $0x0,0x98(%rsp)
    796e:	00 
    796f:	74 22                	je     7993 <do_options+0x45c>
    7971:	44 8b 84 24 98 00 00 	mov    0x98(%rsp),%r8d
    7978:	00 
    7979:	48 8b 74 24 08       	mov    0x8(%rsp),%rsi
    797e:	b9 04 00 00 00       	mov    $0x4,%ecx
    7983:	ba 76 00 00 00       	mov    $0x76,%edx
    7988:	4c 89 e7             	mov    %r12,%rdi
    798b:	41 0f c8             	bswap  %r8d
    798e:	e8 22 f0 ff ff       	callq  69b5 <option_put>
    7993:	83 bc 24 d0 00 00 00 	cmpl   $0xffffffff,0xd0(%rsp)
    799a:	ff 
    799b:	0f 84 c3 00 00 00    	je     7a64 <do_options+0x52d>
    79a1:	6b 9c 24 d0 00 00 00 	imul   $0x7,0xd0(%rsp),%ebx
    79a8:	07 
    79a9:	48 8b 05 08 71 24 00 	mov    0x247108(%rip),%rax        # 24eab8 <dnsmasq_daemon>
    79b0:	44 8b 84 24 d0 00 00 	mov    0xd0(%rsp),%r8d
    79b7:	00 
    79b8:	48 8b 80 20 02 00 00 	mov    0x220(%rax),%rax
    79bf:	41 d1 e8             	shr    %r8d
    79c2:	c1 eb 03             	shr    $0x3,%ebx
    79c5:	48 89 c2             	mov    %rax,%rdx
    79c8:	48 85 d2             	test   %rdx,%rdx
    79cb:	74 1e                	je     79eb <do_options+0x4b4>
    79cd:	83 3a 3a             	cmpl   $0x3a,(%rdx)
    79d0:	75 0a                	jne    79dc <do_options+0x4a5>
    79d2:	f6 42 09 10          	testb  $0x10,0x9(%rdx)
    79d6:	0f 85 8b 08 00 00    	jne    8267 <do_options+0xd30>
    79dc:	48 8b 52 28          	mov    0x28(%rdx),%rdx
    79e0:	eb e6                	jmp    79c8 <do_options+0x491>
    79e2:	83 38 3b             	cmpl   $0x3b,(%rax)
    79e5:	74 0b                	je     79f2 <do_options+0x4bb>
    79e7:	48 8b 40 28          	mov    0x28(%rax),%rax
    79eb:	48 85 c0             	test   %rax,%rax
    79ee:	75 f2                	jne    79e2 <do_options+0x4ab>
    79f0:	eb 1d                	jmp    7a0f <do_options+0x4d8>
    79f2:	f6 40 09 10          	testb  $0x10,0x9(%rax)
    79f6:	74 ef                	je     79e7 <do_options+0x4b0>
    79f8:	48 8b 40 18          	mov    0x18(%rax),%rax
    79fc:	8b 00                	mov    (%rax),%eax
    79fe:	0f c8                	bswap  %eax
    7a00:	39 84 24 d0 00 00 00 	cmp    %eax,0xd0(%rsp)
    7a07:	76 06                	jbe    7a0f <do_options+0x4d8>
    7a09:	83 f8 02             	cmp    $0x2,%eax
    7a0c:	0f 47 d8             	cmova  %eax,%ebx
    7a0f:	41 39 d8             	cmp    %ebx,%r8d
    7a12:	72 04                	jb     7a18 <do_options+0x4e1>
    7a14:	44 8d 43 ff          	lea    -0x1(%rbx),%r8d
    7a18:	8b 4c 24 3c          	mov    0x3c(%rsp),%ecx
    7a1c:	44 89 c2             	mov    %r8d,%edx
    7a1f:	c1 ea 03             	shr    $0x3,%edx
    7a22:	0f b7 c1             	movzwl %cx,%eax
    7a25:	39 d0                	cmp    %edx,%eax
    7a27:	76 05                	jbe    7a2e <do_options+0x4f7>
    7a29:	66 d1 e9             	shr    %cx
    7a2c:	eb f4                	jmp    7a22 <do_options+0x4eb>
    7a2e:	48 8b 74 24 08       	mov    0x8(%rsp),%rsi
    7a33:	41 29 c0             	sub    %eax,%r8d
    7a36:	b9 04 00 00 00       	mov    $0x4,%ecx
    7a3b:	ba 3a 00 00 00       	mov    $0x3a,%edx
    7a40:	4c 89 e7             	mov    %r12,%rdi
    7a43:	29 c3                	sub    %eax,%ebx
    7a45:	e8 6b ef ff ff       	callq  69b5 <option_put>
    7a4a:	48 8b 74 24 08       	mov    0x8(%rsp),%rsi
    7a4f:	41 89 d8             	mov    %ebx,%r8d
    7a52:	b9 04 00 00 00       	mov    $0x4,%ecx
    7a57:	ba 3b 00 00 00       	mov    $0x3b,%edx
    7a5c:	4c 89 e7             	mov    %r12,%rdi
    7a5f:	e8 51 ef ff ff       	callq  69b5 <option_put>
    7a64:	4d 85 f6             	test   %r14,%r14
    7a67:	0f 84 47 01 00 00    	je     7bb4 <do_options+0x67d>
    7a6d:	48 8b 05 44 70 24 00 	mov    0x247044(%rip),%rax        # 24eab8 <dnsmasq_daemon>
    7a74:	48 8b 80 20 02 00 00 	mov    0x220(%rax),%rax
    7a7b:	48 85 c0             	test   %rax,%rax
    7a7e:	74 11                	je     7a91 <do_options+0x55a>
    7a80:	83 38 01             	cmpl   $0x1,(%rax)
    7a83:	75 06                	jne    7a8b <do_options+0x554>
    7a85:	f6 40 09 10          	testb  $0x10,0x9(%rax)
    7a89:	75 24                	jne    7aaf <do_options+0x578>
    7a8b:	48 8b 40 28          	mov    0x28(%rax),%rax
    7a8f:	eb ea                	jmp    7a7b <do_options+0x544>
    7a91:	45 8b 46 08          	mov    0x8(%r14),%r8d
    7a95:	48 8b 74 24 08       	mov    0x8(%rsp),%rsi
    7a9a:	b9 04 00 00 00       	mov    $0x4,%ecx
    7a9f:	ba 01 00 00 00       	mov    $0x1,%edx
    7aa4:	4c 89 e7             	mov    %r12,%rdi
    7aa7:	41 0f c8             	bswap  %r8d
    7aaa:	e8 06 ef ff ff       	callq  69b5 <option_put>
    7aaf:	45 8b 46 0c          	mov    0xc(%r14),%r8d
    7ab3:	45 85 c0             	test   %r8d,%r8d
    7ab6:	74 3e                	je     7af6 <do_options+0x5bf>
    7ab8:	48 8b 05 f9 6f 24 00 	mov    0x246ff9(%rip),%rax        # 24eab8 <dnsmasq_daemon>
    7abf:	48 8b 80 20 02 00 00 	mov    0x220(%rax),%rax
    7ac6:	48 85 c0             	test   %rax,%rax
    7ac9:	74 11                	je     7adc <do_options+0x5a5>
    7acb:	83 38 1c             	cmpl   $0x1c,(%rax)
    7ace:	75 06                	jne    7ad6 <do_options+0x59f>
    7ad0:	f6 40 09 10          	testb  $0x10,0x9(%rax)
    7ad4:	75 20                	jne    7af6 <do_options+0x5bf>
    7ad6:	48 8b 40 28          	mov    0x28(%rax),%rax
    7ada:	eb ea                	jmp    7ac6 <do_options+0x58f>
    7adc:	48 8b 74 24 08       	mov    0x8(%rsp),%rsi
    7ae1:	41 0f c8             	bswap  %r8d
    7ae4:	b9 04 00 00 00       	mov    $0x4,%ecx
    7ae9:	ba 1c 00 00 00       	mov    $0x1c,%edx
    7aee:	4c 89 e7             	mov    %r12,%rdi
    7af1:	e8 bf ee ff ff       	callq  69b5 <option_put>
    7af6:	45 8b 46 14          	mov    0x14(%r14),%r8d
    7afa:	45 85 c0             	test   %r8d,%r8d
    7afd:	74 54                	je     7b53 <do_options+0x61c>
    7aff:	4d 85 ed             	test   %r13,%r13
    7b02:	74 11                	je     7b15 <do_options+0x5de>
    7b04:	be 03 00 00 00       	mov    $0x3,%esi
    7b09:	4c 89 ef             	mov    %r13,%rdi
    7b0c:	e8 9d f9 ff ff       	callq  74ae <in_list.part.3>
    7b11:	85 c0                	test   %eax,%eax
    7b13:	74 3e                	je     7b53 <do_options+0x61c>
    7b15:	48 8b 05 9c 6f 24 00 	mov    0x246f9c(%rip),%rax        # 24eab8 <dnsmasq_daemon>
    7b1c:	48 8b 80 20 02 00 00 	mov    0x220(%rax),%rax
    7b23:	48 85 c0             	test   %rax,%rax
    7b26:	74 11                	je     7b39 <do_options+0x602>
    7b28:	83 38 03             	cmpl   $0x3,(%rax)
    7b2b:	75 06                	jne    7b33 <do_options+0x5fc>
    7b2d:	f6 40 09 10          	testb  $0x10,0x9(%rax)
    7b31:	75 20                	jne    7b53 <do_options+0x61c>
    7b33:	48 8b 40 28          	mov    0x28(%rax),%rax
    7b37:	eb ea                	jmp    7b23 <do_options+0x5ec>
    7b39:	48 8b 74 24 08       	mov    0x8(%rsp),%rsi
    7b3e:	41 0f c8             	bswap  %r8d
    7b41:	b9 04 00 00 00       	mov    $0x4,%ecx
    7b46:	ba 03 00 00 00       	mov    $0x3,%edx
    7b4b:	4c 89 e7             	mov    %r12,%rdi
    7b4e:	e8 62 ee ff ff       	callq  69b5 <option_put>
    7b53:	48 8b 15 5e 6f 24 00 	mov    0x246f5e(%rip),%rdx        # 24eab8 <dnsmasq_daemon>
    7b5a:	83 ba 9c 01 00 00 35 	cmpl   $0x35,0x19c(%rdx)
    7b61:	75 51                	jne    7bb4 <do_options+0x67d>
    7b63:	4d 85 ed             	test   %r13,%r13
    7b66:	74 11                	je     7b79 <do_options+0x642>
    7b68:	be 06 00 00 00       	mov    $0x6,%esi
    7b6d:	4c 89 ef             	mov    %r13,%rdi
    7b70:	e8 39 f9 ff ff       	callq  74ae <in_list.part.3>
    7b75:	85 c0                	test   %eax,%eax
    7b77:	74 55                	je     7bce <do_options+0x697>
    7b79:	48 8b 82 20 02 00 00 	mov    0x220(%rdx),%rax
    7b80:	48 85 c0             	test   %rax,%rax
    7b83:	74 11                	je     7b96 <do_options+0x65f>
    7b85:	83 38 06             	cmpl   $0x6,(%rax)
    7b88:	75 06                	jne    7b90 <do_options+0x659>
    7b8a:	f6 40 09 10          	testb  $0x10,0x9(%rax)
    7b8e:	75 24                	jne    7bb4 <do_options+0x67d>
    7b90:	48 8b 40 28          	mov    0x28(%rax),%rax
    7b94:	eb ea                	jmp    7b80 <do_options+0x649>
    7b96:	45 8b 46 10          	mov    0x10(%r14),%r8d
    7b9a:	48 8b 74 24 08       	mov    0x8(%rsp),%rsi
    7b9f:	b9 04 00 00 00       	mov    $0x4,%ecx
    7ba4:	ba 06 00 00 00       	mov    $0x6,%edx
    7ba9:	4c 89 e7             	mov    %r12,%rdi
    7bac:	41 0f c8             	bswap  %r8d
    7baf:	e8 01 ee ff ff       	callq  69b5 <option_put>
    7bb4:	4d 85 ff             	test   %r15,%r15
    7bb7:	74 62                	je     7c1b <do_options+0x6e4>
    7bb9:	4d 85 ed             	test   %r13,%r13
    7bbc:	75 15                	jne    7bd3 <do_options+0x69c>
    7bbe:	48 8b 05 f3 6e 24 00 	mov    0x246ef3(%rip),%rax        # 24eab8 <dnsmasq_daemon>
    7bc5:	48 8b 80 20 02 00 00 	mov    0x220(%rax),%rax
    7bcc:	eb 21                	jmp    7bef <do_options+0x6b8>
    7bce:	4d 85 ff             	test   %r15,%r15
    7bd1:	74 69                	je     7c3c <do_options+0x705>
    7bd3:	be 0f 00 00 00       	mov    $0xf,%esi
    7bd8:	4c 89 ef             	mov    %r13,%rdi
    7bdb:	e8 ce f8 ff ff       	callq  74ae <in_list.part.3>
    7be0:	85 c0                	test   %eax,%eax
    7be2:	75 da                	jne    7bbe <do_options+0x687>
    7be4:	eb 56                	jmp    7c3c <do_options+0x705>
    7be6:	83 38 0f             	cmpl   $0xf,(%rax)
    7be9:	74 0b                	je     7bf6 <do_options+0x6bf>
    7beb:	48 8b 40 28          	mov    0x28(%rax),%rax
    7bef:	48 85 c0             	test   %rax,%rax
    7bf2:	75 f2                	jne    7be6 <do_options+0x6af>
    7bf4:	eb 08                	jmp    7bfe <do_options+0x6c7>
    7bf6:	f6 40 09 10          	testb  $0x10,0x9(%rax)
    7bfa:	74 ef                	je     7beb <do_options+0x6b4>
    7bfc:	eb 1d                	jmp    7c1b <do_options+0x6e4>
    7bfe:	44 8b 84 24 a8 00 00 	mov    0xa8(%rsp),%r8d
    7c05:	00 
    7c06:	48 8b 74 24 08       	mov    0x8(%rsp),%rsi
    7c0b:	4c 89 f9             	mov    %r15,%rcx
    7c0e:	ba 0f 00 00 00       	mov    $0xf,%edx
    7c13:	4c 89 e7             	mov    %r12,%rdi
    7c16:	e8 25 ee ff ff       	callq  6a40 <option_put_string>
    7c1b:	48 83 7c 24 18 00    	cmpq   $0x0,0x18(%rsp)
    7c21:	0f 84 1d 01 00 00    	je     7d44 <do_options+0x80d>
    7c27:	4d 85 ed             	test   %r13,%r13
    7c2a:	75 1c                	jne    7c48 <do_options+0x711>
    7c2c:	48 8b 05 85 6e 24 00 	mov    0x246e85(%rip),%rax        # 24eab8 <dnsmasq_daemon>
    7c33:	48 8b 80 20 02 00 00 	mov    0x220(%rax),%rax
    7c3a:	eb 28                	jmp    7c64 <do_options+0x72d>
    7c3c:	48 83 7c 24 18 00    	cmpq   $0x0,0x18(%rsp)
    7c42:	0f 84 fc 00 00 00    	je     7d44 <do_options+0x80d>
    7c48:	be 0c 00 00 00       	mov    $0xc,%esi
    7c4d:	4c 89 ef             	mov    %r13,%rdi
    7c50:	e8 59 f8 ff ff       	callq  74ae <in_list.part.3>
    7c55:	85 c0                	test   %eax,%eax
    7c57:	75 d3                	jne    7c2c <do_options+0x6f5>
    7c59:	eb 37                	jmp    7c92 <do_options+0x75b>
    7c5b:	83 38 0c             	cmpl   $0xc,(%rax)
    7c5e:	74 0b                	je     7c6b <do_options+0x734>
    7c60:	48 8b 40 28          	mov    0x28(%rax),%rax
    7c64:	48 85 c0             	test   %rax,%rax
    7c67:	75 f2                	jne    7c5b <do_options+0x724>
    7c69:	eb 08                	jmp    7c73 <do_options+0x73c>
    7c6b:	f6 40 09 10          	testb  $0x10,0x9(%rax)
    7c6f:	74 ef                	je     7c60 <do_options+0x729>
    7c71:	eb 1f                	jmp    7c92 <do_options+0x75b>
    7c73:	44 8b 84 24 a8 00 00 	mov    0xa8(%rsp),%r8d
    7c7a:	00 
    7c7b:	48 8b 4c 24 18       	mov    0x18(%rsp),%rcx
    7c80:	ba 0c 00 00 00       	mov    $0xc,%edx
    7c85:	48 8b 74 24 08       	mov    0x8(%rsp),%rsi
    7c8a:	4c 89 e7             	mov    %r12,%rdi
    7c8d:	e8 ae ed ff ff       	callq  6a40 <option_put_string>
    7c92:	80 7c 24 34 00       	cmpb   $0x0,0x34(%rsp)
    7c97:	0f 84 a7 00 00 00    	je     7d44 <do_options+0x80d>
    7c9d:	48 8b 7c 24 18       	mov    0x18(%rsp),%rdi
    7ca2:	48 83 c9 ff          	or     $0xffffffffffffffff,%rcx
    7ca6:	31 c0                	xor    %eax,%eax
    7ca8:	f2 ae                	repnz scas %es:(%rdi),%al
    7caa:	48 89 cb             	mov    %rcx,%rbx
    7cad:	48 f7 d3             	not    %rbx
    7cb0:	48 89 d9             	mov    %rbx,%rcx
    7cb3:	8a 5c 24 34          	mov    0x34(%rsp),%bl
    7cb7:	48 ff c9             	dec    %rcx
    7cba:	8d 51 03             	lea    0x3(%rcx),%edx
    7cbd:	80 e3 04             	and    $0x4,%bl
    7cc0:	74 0d                	je     7ccf <do_options+0x798>
    7cc2:	4d 85 ff             	test   %r15,%r15
    7cc5:	8d 51 04             	lea    0x4(%rcx),%edx
    7cc8:	74 2a                	je     7cf4 <do_options+0x7bd>
    7cca:	8d 51 05             	lea    0x5(%rcx),%edx
    7ccd:	eb 12                	jmp    7ce1 <do_options+0x7aa>
    7ccf:	83 bc 24 a8 00 00 00 	cmpl   $0x0,0xa8(%rsp)
    7cd6:	00 
    7cd7:	74 03                	je     7cdc <do_options+0x7a5>
    7cd9:	8d 51 04             	lea    0x4(%rcx),%edx
    7cdc:	4d 85 ff             	test   %r15,%r15
    7cdf:	74 13                	je     7cf4 <do_options+0x7bd>
    7ce1:	48 83 c9 ff          	or     $0xffffffffffffffff,%rcx
    7ce5:	31 c0                	xor    %eax,%eax
    7ce7:	4c 89 ff             	mov    %r15,%rdi
    7cea:	f2 ae                	repnz scas %es:(%rdi),%al
    7cec:	48 89 ce             	mov    %rcx,%rsi
    7cef:	48 f7 d6             	not    %rsi
    7cf2:	01 f2                	add    %esi,%edx
    7cf4:	48 8b 74 24 08       	mov    0x8(%rsp),%rsi
    7cf9:	89 d1                	mov    %edx,%ecx
    7cfb:	4c 89 e7             	mov    %r12,%rdi
    7cfe:	ba 51 00 00 00       	mov    $0x51,%edx
    7d03:	e8 b5 eb ff ff       	callq  68bd <free_space>
    7d08:	48 85 c0             	test   %rax,%rax
    7d0b:	74 37                	je     7d44 <do_options+0x80d>
    7d0d:	8a 54 24 34          	mov    0x34(%rsp),%dl
    7d11:	4c 8d 40 03          	lea    0x3(%rax),%r8
    7d15:	66 c7 40 01 ff ff    	movw   $0xffff,0x1(%rax)
    7d1b:	83 e2 0f             	and    $0xf,%edx
    7d1e:	84 db                	test   %bl,%bl
    7d20:	88 10                	mov    %dl,(%rax)
    7d22:	74 32                	je     7d56 <do_options+0x81f>
    7d24:	48 8b 74 24 18       	mov    0x18(%rsp),%rsi
    7d29:	4c 89 c7             	mov    %r8,%rdi
    7d2c:	e8 af 9d 00 00       	callq  11ae0 <do_rfc1035_name>
    7d31:	4d 85 ff             	test   %r15,%r15
    7d34:	74 0e                	je     7d44 <do_options+0x80d>
    7d36:	4c 89 fe             	mov    %r15,%rsi
    7d39:	48 89 c7             	mov    %rax,%rdi
    7d3c:	e8 9f 9d 00 00       	callq  11ae0 <do_rfc1035_name>
    7d41:	c6 00 00             	movb   $0x0,(%rax)
    7d44:	48 8b 5c 24 10       	mov    0x10(%rsp),%rbx
    7d49:	c7 44 24 34 00 00 00 	movl   $0x0,0x34(%rsp)
    7d50:	00 
    7d51:	e9 89 00 00 00       	jmpq   7ddf <do_options+0x8a8>
    7d56:	48 8b 7c 24 18       	mov    0x18(%rsp),%rdi
    7d5b:	48 83 ca ff          	or     $0xffffffffffffffff,%rdx
    7d5f:	88 d8                	mov    %bl,%al
    7d61:	48 89 d1             	mov    %rdx,%rcx
    7d64:	48 8b 74 24 18       	mov    0x18(%rsp),%rsi
    7d69:	f2 ae                	repnz scas %es:(%rdi),%al
    7d6b:	4c 89 c7             	mov    %r8,%rdi
    7d6e:	48 f7 d1             	not    %rcx
    7d71:	48 01 d1             	add    %rdx,%rcx
    7d74:	f3 a4                	rep movsb %ds:(%rsi),%es:(%rdi)
    7d76:	48 8b 7c 24 18       	mov    0x18(%rsp),%rdi
    7d7b:	48 89 d1             	mov    %rdx,%rcx
    7d7e:	f2 ae                	repnz scas %es:(%rdi),%al
    7d80:	4d 85 ff             	test   %r15,%r15
    7d83:	48 f7 d1             	not    %rcx
    7d86:	49 8d 44 08 ff       	lea    -0x1(%r8,%rcx,1),%rax
    7d8b:	74 32                	je     7dbf <do_options+0x888>
    7d8d:	c6 00 2e             	movb   $0x2e,(%rax)
    7d90:	4c 8d 40 01          	lea    0x1(%rax),%r8
    7d94:	4c 89 ff             	mov    %r15,%rdi
    7d97:	88 d8                	mov    %bl,%al
    7d99:	48 89 d1             	mov    %rdx,%rcx
    7d9c:	4c 89 fe             	mov    %r15,%rsi
    7d9f:	f2 ae                	repnz scas %es:(%rdi),%al
    7da1:	4c 89 c7             	mov    %r8,%rdi
    7da4:	48 f7 d1             	not    %rcx
    7da7:	48 01 d1             	add    %rdx,%rcx
    7daa:	f3 a4                	rep movsb %ds:(%rsi),%es:(%rdi)
    7dac:	4c 89 ff             	mov    %r15,%rdi
    7daf:	48 89 d1             	mov    %rdx,%rcx
    7db2:	f2 ae                	repnz scas %es:(%rdi),%al
    7db4:	49 89 cf             	mov    %rcx,%r15
    7db7:	49 f7 d7             	not    %r15
    7dba:	4b 8d 44 38 ff       	lea    -0x1(%r8,%r15,1),%rax
    7dbf:	83 bc 24 a8 00 00 00 	cmpl   $0x0,0xa8(%rsp)
    7dc6:	00 
    7dc7:	0f 84 77 ff ff ff    	je     7d44 <do_options+0x80d>
    7dcd:	e9 6f ff ff ff       	jmpq   7d41 <do_options+0x80a>
    7dd2:	8b 43 08             	mov    0x8(%rbx),%eax
    7dd5:	0f ba e0 0c          	bt     $0xc,%eax
    7dd9:	72 16                	jb     7df1 <do_options+0x8ba>
    7ddb:	48 8b 5b 28          	mov    0x28(%rbx),%rbx
    7ddf:	4d 85 ed             	test   %r13,%r13
    7de2:	0f 94 44 24 18       	sete   0x18(%rsp)
    7de7:	48 85 db             	test   %rbx,%rbx
    7dea:	75 e6                	jne    7dd2 <do_options+0x89b>
    7dec:	e9 0e 01 00 00       	jmpq   7eff <do_options+0x9c8>
    7df1:	a8 10                	test   $0x10,%al
    7df3:	44 8b 3b             	mov    (%rbx),%r15d
    7df6:	75 16                	jne    7e0e <do_options+0x8d7>
    7df8:	80 7c 24 18 00       	cmpb   $0x0,0x18(%rsp)
    7dfd:	75 0f                	jne    7e0e <do_options+0x8d7>
    7dff:	44 89 fe             	mov    %r15d,%esi
    7e02:	4c 89 ef             	mov    %r13,%rdi
    7e05:	e8 a4 f6 ff ff       	callq  74ae <in_list.part.3>
    7e0a:	85 c0                	test   %eax,%eax
    7e0c:	74 cd                	je     7ddb <do_options+0x8a4>
    7e0e:	41 83 ff 51          	cmp    $0x51,%r15d
    7e12:	74 c7                	je     7ddb <do_options+0x8a4>
    7e14:	41 83 ff 3b          	cmp    $0x3b,%r15d
    7e18:	77 12                	ja     7e2c <do_options+0x8f5>
    7e1a:	48 b8 01 00 00 00 00 	movabs $0xe10000000000001,%rax
    7e21:	00 10 0e 
    7e24:	4c 0f a3 f8          	bt     %r15,%rax
    7e28:	72 b1                	jb     7ddb <do_options+0x8a4>
    7e2a:	eb 09                	jmp    7e35 <do_options+0x8fe>
    7e2c:	41 81 ff ff 00 00 00 	cmp    $0xff,%r15d
    7e33:	74 a6                	je     7ddb <do_options+0x8a4>
    7e35:	41 83 ff 42          	cmp    $0x42,%r15d
    7e39:	75 04                	jne    7e3f <do_options+0x908>
    7e3b:	85 ed                	test   %ebp,%ebp
    7e3d:	75 9c                	jne    7ddb <do_options+0x8a4>
    7e3f:	41 83 ff 43          	cmp    $0x43,%r15d
    7e43:	75 07                	jne    7e4c <do_options+0x915>
    7e45:	83 7c 24 20 00       	cmpl   $0x0,0x20(%rsp)
    7e4a:	75 8f                	jne    7ddb <do_options+0x8a4>
    7e4c:	83 7b 04 00          	cmpl   $0x0,0x4(%rbx)
    7e50:	75 15                	jne    7e67 <do_options+0x930>
    7e52:	41 83 ff 1c          	cmp    $0x1c,%r15d
    7e56:	77 0f                	ja     7e67 <do_options+0x930>
    7e58:	b8 4a 90 00 10       	mov    $0x1000904a,%eax
    7e5d:	4c 0f a3 f8          	bt     %r15,%rax
    7e61:	0f 82 74 ff ff ff    	jb     7ddb <do_options+0x8a4>
    7e67:	83 bc 24 b0 00 00 00 	cmpl   $0xffffffff,0xb0(%rsp)
    7e6e:	ff 
    7e6f:	74 0a                	je     7e7b <do_options+0x944>
    7e71:	41 83 ff 3c          	cmp    $0x3c,%r15d
    7e75:	0f 84 60 ff ff ff    	je     7ddb <do_options+0x8a4>
    7e7b:	41 8d 47 be          	lea    -0x42(%r15),%eax
    7e7f:	41 b8 01 00 00 00    	mov    $0x1,%r8d
    7e85:	4c 89 f2             	mov    %r14,%rdx
    7e88:	48 89 df             	mov    %rbx,%rdi
    7e8b:	83 f8 02             	cmp    $0x2,%eax
    7e8e:	44 0f 43 84 24 a8 00 	cmovae 0xa8(%rsp),%r8d
    7e95:	00 00 
    7e97:	31 f6                	xor    %esi,%esi
    7e99:	44 89 c1             	mov    %r8d,%ecx
    7e9c:	44 89 44 24 18       	mov    %r8d,0x18(%rsp)
    7ea1:	e8 5e f4 ff ff       	callq  7304 <do_opt>
    7ea6:	48 8b 74 24 08       	mov    0x8(%rsp),%rsi
    7eab:	89 c1                	mov    %eax,%ecx
    7ead:	44 89 fa             	mov    %r15d,%edx
    7eb0:	4c 89 e7             	mov    %r12,%rdi
    7eb3:	e8 05 ea ff ff       	callq  68bd <free_space>
    7eb8:	48 85 c0             	test   %rax,%rax
    7ebb:	49 89 c2             	mov    %rax,%r10
    7ebe:	0f 84 17 ff ff ff    	je     7ddb <do_options+0x8a4>
    7ec4:	44 8b 44 24 18       	mov    0x18(%rsp),%r8d
    7ec9:	4c 89 f2             	mov    %r14,%rdx
    7ecc:	48 89 c6             	mov    %rax,%rsi
    7ecf:	48 89 df             	mov    %rbx,%rdi
    7ed2:	44 89 c1             	mov    %r8d,%ecx
    7ed5:	e8 2a f4 ff ff       	callq  7304 <do_opt>
    7eda:	41 83 ff 3c          	cmp    $0x3c,%r15d
    7ede:	0f 85 f7 fe ff ff    	jne    7ddb <do_options+0x8a4>
    7ee4:	48 8b 74 24 10       	mov    0x10(%rsp),%rsi
    7ee9:	49 8d 7a fe          	lea    -0x2(%r10),%rdi
    7eed:	e8 8e d6 01 00       	callq  25580 <match_vendor_opts>
    7ef2:	c7 44 24 34 01 00 00 	movl   $0x1,0x34(%rsp)
    7ef9:	00 
    7efa:	e9 dc fe ff ff       	jmpq   7ddb <do_options+0x8a4>
    7eff:	48 8b 44 24 10       	mov    0x10(%rsp),%rax
    7f04:	48 85 c0             	test   %rax,%rax
    7f07:	74 0a                	je     7f13 <do_options+0x9dc>
    7f09:	83 60 08 bf          	andl   $0xffffffbf,0x8(%rax)
    7f0d:	48 8b 40 28          	mov    0x28(%rax),%rax
    7f11:	eb f1                	jmp    7f04 <do_options+0x9cd>
    7f13:	48 8b 5c 24 10       	mov    0x10(%rsp),%rbx
    7f18:	4c 89 74 24 40       	mov    %r14,0x40(%rsp)
    7f1d:	4c 89 6c 24 20       	mov    %r13,0x20(%rsp)
    7f22:	48 85 db             	test   %rbx,%rbx
    7f25:	0f 84 99 01 00 00    	je     80c4 <do_options+0xb8d>
    7f2b:	8b 6b 08             	mov    0x8(%rbx),%ebp
    7f2e:	89 e8                	mov    %ebp,%eax
    7f30:	25 04 08 00 00       	and    $0x804,%eax
    7f35:	89 44 24 3c          	mov    %eax,0x3c(%rsp)
    7f39:	0f 84 7c 01 00 00    	je     80bb <do_options+0xb84>
    7f3f:	41 89 ee             	mov    %ebp,%r14d
    7f42:	41 83 e6 40          	and    $0x40,%r14d
    7f46:	0f 85 6f 01 00 00    	jne    80bb <do_options+0xb84>
    7f4c:	89 e8                	mov    %ebp,%eax
    7f4e:	4c 8b 6c 24 10       	mov    0x10(%rsp),%r13
    7f53:	45 31 ff             	xor    %r15d,%r15d
    7f56:	83 e0 04             	and    $0x4,%eax
    7f59:	89 44 24 48          	mov    %eax,0x48(%rsp)
    7f5d:	4d 85 ed             	test   %r13,%r13
    7f60:	0f 84 99 00 00 00    	je     7fff <do_options+0xac8>
    7f66:	83 7c 24 48 00       	cmpl   $0x0,0x48(%rsp)
    7f6b:	b9 7d 00 00 00       	mov    $0x7d,%ecx
    7f70:	74 04                	je     7f76 <do_options+0xa3f>
    7f72:	41 8b 4d 10          	mov    0x10(%r13),%ecx
    7f76:	41 8b 45 08          	mov    0x8(%r13),%eax
    7f7a:	83 e0 f7             	and    $0xfffffff7,%eax
    7f7d:	85 44 24 3c          	test   %eax,0x3c(%rsp)
    7f81:	41 89 45 08          	mov    %eax,0x8(%r13)
    7f85:	74 6f                	je     7ff6 <do_options+0xabf>
    7f87:	41 8b 75 10          	mov    0x10(%r13),%esi
    7f8b:	39 73 10             	cmp    %esi,0x10(%rbx)
    7f8e:	75 66                	jne    7ff6 <do_options+0xabf>
    7f90:	49 8b 7d 20          	mov    0x20(%r13),%rdi
    7f94:	48 8b 74 24 28       	mov    0x28(%rsp),%rsi
    7f99:	83 c8 40             	or     $0x40,%eax
    7f9c:	41 89 45 08          	mov    %eax,0x8(%r13)
    7fa0:	ba 01 00 00 00       	mov    $0x1,%edx
    7fa5:	89 4c 24 4c          	mov    %ecx,0x4c(%rsp)
    7fa9:	e8 72 c8 02 00       	callq  34820 <match_netid>
    7fae:	85 c0                	test   %eax,%eax
    7fb0:	74 44                	je     7ff6 <do_options+0xabf>
    7fb2:	41 8b 55 08          	mov    0x8(%r13),%edx
    7fb6:	f6 c2 10             	test   $0x10,%dl
    7fb9:	75 1b                	jne    7fd6 <do_options+0xa9f>
    7fbb:	80 7c 24 18 00       	cmpb   $0x0,0x18(%rsp)
    7fc0:	75 14                	jne    7fd6 <do_options+0xa9f>
    7fc2:	8b 4c 24 4c          	mov    0x4c(%rsp),%ecx
    7fc6:	48 8b 7c 24 20       	mov    0x20(%rsp),%rdi
    7fcb:	89 ce                	mov    %ecx,%esi
    7fcd:	e8 dc f4 ff ff       	callq  74ae <in_list.part.3>
    7fd2:	85 c0                	test   %eax,%eax
    7fd4:	74 20                	je     7ff6 <do_options+0xabf>
    7fd6:	83 ca 08             	or     $0x8,%edx
    7fd9:	31 c9                	xor    %ecx,%ecx
    7fdb:	31 f6                	xor    %esi,%esi
    7fdd:	41 89 55 08          	mov    %edx,0x8(%r13)
    7fe1:	4c 89 ef             	mov    %r13,%rdi
    7fe4:	31 d2                	xor    %edx,%edx
    7fe6:	e8 19 f3 ff ff       	callq  7304 <do_opt>
    7feb:	46 8d 74 30 02       	lea    0x2(%rax,%r14,1),%r14d
    7ff0:	41 bf 01 00 00 00    	mov    $0x1,%r15d
    7ff6:	4d 8b 6d 28          	mov    0x28(%r13),%r13
    7ffa:	e9 5e ff ff ff       	jmpq   7f5d <do_options+0xa26>
    7fff:	45 85 ff             	test   %r15d,%r15d
    8002:	0f 84 b3 00 00 00    	je     80bb <do_options+0xb84>
    8008:	40 80 e5 04          	and    $0x4,%bpl
    800c:	74 27                	je     8035 <do_options+0xafe>
    800e:	8b 73 10             	mov    0x10(%rbx),%esi
    8011:	44 8b 8c 24 a8 00 00 	mov    0xa8(%rsp),%r9d
    8018:	00 
    8019:	4c 89 e1             	mov    %r12,%rcx
    801c:	4c 8b 44 24 08       	mov    0x8(%rsp),%r8
    8021:	48 8b 7c 24 10       	mov    0x10(%rsp),%rdi
    8026:	ba 08 00 00 00       	mov    $0x8,%edx
    802b:	e8 43 f3 ff ff       	callq  7373 <do_encap_opts>
    8030:	e9 86 00 00 00       	jmpq   80bb <do_options+0xb84>
    8035:	41 81 fe fa 00 00 00 	cmp    $0xfa,%r14d
    803c:	7e 18                	jle    8056 <do_options+0xb1f>
    803e:	8b 53 10             	mov    0x10(%rbx),%edx
    8041:	48 8d 35 30 a9 03 00 	lea    0x3a930(%rip),%rsi        # 42978 <meta+0x1298>
    8048:	bf 1c 00 00 00       	mov    $0x1c,%edi
    804d:	31 c0                	xor    %eax,%eax
    804f:	e8 8c 58 02 00       	callq  2d8e0 <my_syslog>
    8054:	eb 65                	jmp    80bb <do_options+0xb84>
    8056:	48 8b 74 24 08       	mov    0x8(%rsp),%rsi
    805b:	41 8d 4e 05          	lea    0x5(%r14),%ecx
    805f:	ba 7d 00 00 00       	mov    $0x7d,%edx
    8064:	4c 89 e7             	mov    %r12,%rdi
    8067:	e8 51 e8 ff ff       	callq  68bd <free_space>
    806c:	48 85 c0             	test   %rax,%rax
    806f:	74 4a                	je     80bb <do_options+0xb84>
    8071:	8b 53 10             	mov    0x10(%rbx),%edx
    8074:	4c 8b 5c 24 10       	mov    0x10(%rsp),%r11
    8079:	4c 8d 50 05          	lea    0x5(%rax),%r10
    807d:	44 88 70 04          	mov    %r14b,0x4(%rax)
    8081:	0f ca                	bswap  %edx
    8083:	89 10                	mov    %edx,(%rax)
    8085:	4d 85 db             	test   %r11,%r11
    8088:	74 31                	je     80bb <do_options+0xb84>
    808a:	41 f6 43 08 08       	testb  $0x8,0x8(%r11)
    808f:	74 24                	je     80b5 <do_options+0xb7e>
    8091:	49 8d 6a 02          	lea    0x2(%r10),%rbp
    8095:	31 d2                	xor    %edx,%edx
    8097:	31 c9                	xor    %ecx,%ecx
    8099:	4c 89 df             	mov    %r11,%rdi
    809c:	48 89 ee             	mov    %rbp,%rsi
    809f:	e8 60 f2 ff ff       	callq  7304 <do_opt>
    80a4:	41 8b 13             	mov    (%r11),%edx
    80a7:	41 88 42 01          	mov    %al,0x1(%r10)
    80ab:	48 98                	cltq   
    80ad:	41 88 12             	mov    %dl,(%r10)
    80b0:	4c 8d 54 05 00       	lea    0x0(%rbp,%rax,1),%r10
    80b5:	4d 8b 5b 28          	mov    0x28(%r11),%r11
    80b9:	eb ca                	jmp    8085 <do_options+0xb4e>
    80bb:	48 8b 5b 28          	mov    0x28(%rbx),%rbx
    80bf:	e9 5e fe ff ff       	jmpq   7f22 <do_options+0x9eb>
    80c4:	4c 8b 74 24 40       	mov    0x40(%rsp),%r14
    80c9:	48 8b 7c 24 28       	mov    0x28(%rsp),%rdi
    80ce:	4c 8b 6c 24 20       	mov    0x20(%rsp),%r13
    80d3:	e8 0f e9 ff ff       	callq  69e7 <prune_vendor_opts>
    80d8:	4d 85 f6             	test   %r14,%r14
    80db:	89 c3                	mov    %eax,%ebx
    80dd:	74 68                	je     8147 <do_options+0xc10>
    80df:	83 bc 24 b0 00 00 00 	cmpl   $0xffffffff,0xb0(%rsp)
    80e6:	ff 
    80e7:	74 5e                	je     8147 <do_options+0xc10>
    80e9:	48 8b 94 24 b8 00 00 	mov    0xb8(%rsp),%rdx
    80f0:	00 
    80f1:	48 8b 74 24 08       	mov    0x8(%rsp),%rsi
    80f6:	4c 89 e7             	mov    %r12,%rdi
    80f9:	e8 e8 f3 ff ff       	callq  74e6 <pxe_misc>
    80fe:	41 8b 4e 10          	mov    0x10(%r14),%ecx
    8102:	4c 8b 84 24 c8 00 00 	mov    0xc8(%rsp),%r8
    8109:	00 
    810a:	45 31 c9             	xor    %r9d,%r9d
    810d:	48 8b 74 24 28       	mov    0x28(%rsp),%rsi
    8112:	8b bc 24 b0 00 00 00 	mov    0xb0(%rsp),%edi
    8119:	4c 89 e2             	mov    %r12,%rdx
    811c:	e8 cc ec ff ff       	callq  6ded <pxe_uefi_workaround>
    8121:	85 c0                	test   %eax,%eax
    8123:	75 22                	jne    8147 <do_options+0xc10>
    8125:	41 8b 56 10          	mov    0x10(%r14),%edx
    8129:	48 8b 8c 24 c8 00 00 	mov    0xc8(%rsp),%rcx
    8130:	00 
    8131:	48 8b 74 24 28       	mov    0x28(%rsp),%rsi
    8136:	8b bc 24 b0 00 00 00 	mov    0xb0(%rsp),%edi
    813d:	e8 50 e9 ff ff       	callq  6a92 <pxe_opts>
    8142:	48 89 44 24 10       	mov    %rax,0x10(%rsp)
    8147:	85 db                	test   %ebx,%ebx
    8149:	75 30                	jne    817b <do_options+0xc44>
    814b:	80 7c 24 18 00       	cmpb   $0x0,0x18(%rsp)
    8150:	75 29                	jne    817b <do_options+0xc44>
    8152:	be 2b 00 00 00       	mov    $0x2b,%esi
    8157:	4c 89 ef             	mov    %r13,%rdi
    815a:	e8 4f f3 ff ff       	callq  74ae <in_list.part.3>
    815f:	85 c0                	test   %eax,%eax
    8161:	75 18                	jne    817b <do_options+0xc44>
    8163:	48 8b 05 4e 69 24 00 	mov    0x24694e(%rip),%rax        # 24eab8 <dnsmasq_daemon>
    816a:	8b 00                	mov    (%rax),%eax
    816c:	0f ba e0 1e          	bt     $0x1e,%eax
    8170:	0f 82 8e 00 00 00    	jb     8204 <do_options+0xccd>
    8176:	e9 0d 01 00 00       	jmpq   8288 <do_options+0xd51>
    817b:	44 8b 8c 24 a8 00 00 	mov    0xa8(%rsp),%r9d
    8182:	00 
    8183:	4c 8b 44 24 08       	mov    0x8(%rsp),%r8
    8188:	4c 89 e1             	mov    %r12,%rcx
    818b:	48 8b 7c 24 10       	mov    0x10(%rsp),%rdi
    8190:	ba 00 04 00 00       	mov    $0x400,%edx
    8195:	be 2b 00 00 00       	mov    $0x2b,%esi
    819a:	e8 d4 f1 ff ff       	callq  7373 <do_encap_opts>
    819f:	85 c0                	test   %eax,%eax
    81a1:	74 58                	je     81fb <do_options+0xcc4>
    81a3:	83 bc 24 b0 00 00 00 	cmpl   $0xffffffff,0xb0(%rsp)
    81aa:	ff 
    81ab:	8a 44 24 34          	mov    0x34(%rsp),%al
    81af:	0f 94 c2             	sete   %dl
    81b2:	83 f0 01             	xor    $0x1,%eax
    81b5:	84 c2                	test   %al,%dl
    81b7:	74 42                	je     81fb <do_options+0xcc4>
    81b9:	83 bc 24 c0 00 00 00 	cmpl   $0x0,0xc0(%rsp)
    81c0:	00 
    81c1:	74 38                	je     81fb <do_options+0xcc4>
    81c3:	8b 8c 24 c0 00 00 00 	mov    0xc0(%rsp),%ecx
    81ca:	48 8b 74 24 08       	mov    0x8(%rsp),%rsi
    81cf:	ba 3c 00 00 00       	mov    $0x3c,%edx
    81d4:	4c 89 e7             	mov    %r12,%rdi
    81d7:	e8 e1 e6 ff ff       	callq  68bd <free_space>
    81dc:	48 85 c0             	test   %rax,%rax
    81df:	74 1a                	je     81fb <do_options+0xcc4>
    81e1:	48 8b 15 d0 68 24 00 	mov    0x2468d0(%rip),%rdx        # 24eab8 <dnsmasq_daemon>
    81e8:	8b 8c 24 c0 00 00 00 	mov    0xc0(%rsp),%ecx
    81ef:	48 89 c7             	mov    %rax,%rdi
    81f2:	48 8b b2 70 06 00 00 	mov    0x670(%rdx),%rsi
    81f9:	f3 a4                	rep movsb %ds:(%rsi),%es:(%rdi)
    81fb:	4d 85 ed             	test   %r13,%r13
    81fe:	0f 85 5f ff ff ff    	jne    8163 <do_options+0xc2c>
    8204:	8a 44 24 3a          	mov    0x3a(%rsp),%al
    8208:	41 88 44 24 6c       	mov    %al,0x6c(%r12)
    820d:	8a 44 24 3b          	mov    0x3b(%rsp),%al
    8211:	41 88 44 24 2c       	mov    %al,0x2c(%r12)
    8216:	eb 70                	jmp    8288 <do_options+0xd51>
    8218:	80 e2 10             	and    $0x10,%dl
    821b:	75 29                	jne    8246 <do_options+0xd0f>
    821d:	48 8b 70 18          	mov    0x18(%rax),%rsi
    8221:	49 8d 7c 24 6c       	lea    0x6c(%r12),%rdi
    8226:	ba 7f 00 00 00       	mov    $0x7f,%edx
    822b:	e8 70 dc ff ff       	callq  5ea0 <strncpy@plt>
    8230:	c7 44 24 20 01 00 00 	movl   $0x1,0x20(%rsp)
    8237:	00 
    8238:	4d 85 ed             	test   %r13,%r13
    823b:	0f 85 3e f6 ff ff    	jne    787f <do_options+0x348>
    8241:	e9 4c f6 ff ff       	jmpq   7892 <do_options+0x35b>
    8246:	c7 44 24 20 00 00 00 	movl   $0x0,0x20(%rsp)
    824d:	00 
    824e:	eb e8                	jmp    8238 <do_options+0xd01>
    8250:	31 ed                	xor    %ebp,%ebp
    8252:	e9 87 f6 ff ff       	jmpq   78de <do_options+0x3a7>
    8257:	48 8b 40 18          	mov    0x18(%rax),%rax
    825b:	8b 00                	mov    (%rax),%eax
    825d:	41 89 44 24 14       	mov    %eax,0x14(%r12)
    8262:	e9 ac f6 ff ff       	jmpq   7913 <do_options+0x3dc>
    8267:	48 8b 52 18          	mov    0x18(%rdx),%rdx
    826b:	8b 12                	mov    (%rdx),%edx
    826d:	0f ca                	bswap  %edx
    826f:	39 94 24 d0 00 00 00 	cmp    %edx,0xd0(%rsp)
    8276:	0f 86 6f f7 ff ff    	jbe    79eb <do_options+0x4b4>
    827c:	83 fa 02             	cmp    $0x2,%edx
    827f:	44 0f 47 c2          	cmova  %edx,%r8d
    8283:	e9 63 f7 ff ff       	jmpq   79eb <do_options+0x4b4>
    8288:	48 83 c4 58          	add    $0x58,%rsp
    828c:	5b                   	pop    %rbx
    828d:	5d                   	pop    %rbp
    828e:	41 5c                	pop    %r12
    8290:	41 5d                	pop    %r13
    8292:	41 5e                	pop    %r14
    8294:	41 5f                	pop    %r15
    8296:	c3                   	retq   
    8297:	66 0f 1f 84 00 00 00 	nopw   0x0(%rax,%rax,1)
    829e:	00 00 

00000000000082a0 <main>:
    82a0:	41 57                	push   %r15
    82a2:	41 56                	push   %r14
    82a4:	41 55                	push   %r13
    82a6:	41 54                	push   %r12
    82a8:	41 89 fc             	mov    %edi,%r12d
    82ab:	55                   	push   %rbp
    82ac:	53                   	push   %rbx
    82ad:	bf 04 00 00 00       	mov    $0x4,%edi
    82b2:	49 89 f5             	mov    %rsi,%r13
    82b5:	48 81 ec 08 01 00 00 	sub    $0x108,%rsp
    82bc:	e8 5f e2 ff ff       	callq  6520 <sysconf@plt>
    82c1:	48 8d 5c 24 60       	lea    0x60(%rsp),%rbx
    82c6:	48 8d 7c 24 68       	lea    0x68(%rsp),%rdi
    82cb:	48 89 c5             	mov    %rax,%rbp
    82ce:	48 8d 05 fb 8c 01 00 	lea    0x18cfb(%rip),%rax        # 20fd0 <sig_handler>
    82d5:	c7 84 24 e8 00 00 00 	movl   $0x0,0xe8(%rsp)
    82dc:	00 00 00 00 
    82e0:	48 89 44 24 60       	mov    %rax,0x60(%rsp)
    82e5:	e8 b6 df ff ff       	callq  62a0 <sigemptyset@plt>
    82ea:	31 d2                	xor    %edx,%edx
    82ec:	48 89 de             	mov    %rbx,%rsi
    82ef:	bf 0a 00 00 00       	mov    $0xa,%edi
    82f4:	e8 27 dc ff ff       	callq  5f20 <sigaction@plt>
    82f9:	31 d2                	xor    %edx,%edx
    82fb:	48 89 de             	mov    %rbx,%rsi
    82fe:	bf 0c 00 00 00       	mov    $0xc,%edi
    8303:	e8 18 dc ff ff       	callq  5f20 <sigaction@plt>
    8308:	31 d2                	xor    %edx,%edx
    830a:	48 89 de             	mov    %rbx,%rsi
    830d:	bf 01 00 00 00       	mov    $0x1,%edi
    8312:	e8 09 dc ff ff       	callq  5f20 <sigaction@plt>
    8317:	31 d2                	xor    %edx,%edx
    8319:	48 89 de             	mov    %rbx,%rsi
    831c:	bf 0f 00 00 00       	mov    $0xf,%edi
    8321:	e8 fa db ff ff       	callq  5f20 <sigaction@plt>
    8326:	31 d2                	xor    %edx,%edx
    8328:	48 89 de             	mov    %rbx,%rsi
    832b:	bf 0e 00 00 00       	mov    $0xe,%edi
    8330:	e8 eb db ff ff       	callq  5f20 <sigaction@plt>
    8335:	31 d2                	xor    %edx,%edx
    8337:	48 89 de             	mov    %rbx,%rsi
    833a:	bf 11 00 00 00       	mov    $0x11,%edi
    833f:	e8 dc db ff ff       	callq  5f20 <sigaction@plt>
    8344:	31 d2                	xor    %edx,%edx
    8346:	48 89 de             	mov    %rbx,%rsi
    8349:	bf 0d 00 00 00       	mov    $0xd,%edi
    834e:	48 c7 44 24 60 01 00 	movq   $0x1,0x60(%rsp)
    8355:	00 00 
    8357:	e8 c4 db ff ff       	callq  5f20 <sigaction@plt>
    835c:	bf 12 00 00 00       	mov    $0x12,%edi
    8361:	e8 4a df ff ff       	callq  62b0 <umask@plt>
    8366:	e8 75 a3 00 00       	callq  126e0 <rand_init>
    836b:	48 8d 15 66 9b 03 00 	lea    0x39b66(%rip),%rdx        # 41ed8 <meta+0x7f8>
    8372:	4c 89 ee             	mov    %r13,%rsi
    8375:	44 89 e7             	mov    %r12d,%edi
    8378:	e8 a3 1a 01 00       	callq  19e20 <read_opts>
    837d:	48 8b 1d 34 67 24 00 	mov    0x246734(%rip),%rbx        # 24eab8 <dnsmasq_daemon>
    8384:	66 81 bb 00 03 00 00 	cmpw   $0x1ff,0x300(%rbx)
    838b:	ff 01 
    838d:	77 09                	ja     8398 <main+0xf8>
    838f:	66 c7 83 00 03 00 00 	movw   $0x200,0x300(%rbx)
    8396:	00 02 
    8398:	0f b7 83 00 03 00 00 	movzwl 0x300(%rbx),%eax
    839f:	05 0b 04 00 00       	add    $0x40b,%eax
    83a4:	89 83 58 03 00 00    	mov    %eax,0x358(%rbx)
    83aa:	48 63 f8             	movslq %eax,%rdi
    83ad:	e8 ae 97 00 00       	callq  11b60 <safe_malloc>
    83b2:	bf 2e 00 00 00       	mov    $0x2e,%edi
    83b7:	48 89 83 50 03 00 00 	mov    %rax,0x350(%rbx)
    83be:	48 8b 1d f3 66 24 00 	mov    0x2466f3(%rip),%rbx        # 24eab8 <dnsmasq_daemon>
    83c5:	e8 96 97 00 00       	callq  11b60 <safe_malloc>
    83ca:	4c 8b 2d e7 66 24 00 	mov    0x2466e7(%rip),%r13        # 24eab8 <dnsmasq_daemon>
    83d1:	48 89 83 d0 06 00 00 	mov    %rax,0x6d0(%rbx)
    83d8:	41 f6 45 06 08       	testb  $0x8,0x6(%r13)
    83dd:	0f 85 34 16 00 00    	jne    9a17 <main+0x1777>
    83e3:	49 83 bd b8 00 00 00 	cmpq   $0x0,0xb8(%r13)
    83ea:	00 
    83eb:	0f 84 05 16 00 00    	je     99f6 <main+0x1756>
    83f1:	31 db                	xor    %ebx,%ebx
    83f3:	48 85 ed             	test   %rbp,%rbp
    83f6:	4c 8d 25 17 a0 03 00 	lea    0x3a017(%rip),%r12        # 42414 <meta+0xd34>
    83fd:	7e 22                	jle    8421 <main+0x181>
    83ff:	90                   	nop
    8400:	48 83 fb 02          	cmp    $0x2,%rbx
    8404:	0f 8e 50 1a 00 00    	jle    9e5a <main+0x1bba>
    840a:	89 df                	mov    %ebx,%edi
    840c:	e8 6f dd ff ff       	callq  6180 <close@plt>
    8411:	48 83 c3 01          	add    $0x1,%rbx
    8415:	48 39 dd             	cmp    %rbx,%rbp
    8418:	75 e6                	jne    8400 <main+0x160>
    841a:	4c 8b 2d 97 66 24 00 	mov    0x246697(%rip),%r13        # 24eab8 <dnsmasq_daemon>
    8421:	41 8b 45 04          	mov    0x4(%r13),%eax
    8425:	f6 c4 20             	test   $0x20,%ah
    8428:	0f 85 a5 15 00 00    	jne    99d3 <main+0x1733>
    842e:	a8 08                	test   $0x8,%al
    8430:	0f 85 fe 15 00 00    	jne    9a34 <main+0x1794>
    8436:	41 8b 85 a8 01 00 00 	mov    0x1a8(%r13),%eax
    843d:	3d ff ff 00 00       	cmp    $0xffff,%eax
    8442:	74 0f                	je     8453 <main+0x1b3>
    8444:	41 8b 95 a4 01 00 00 	mov    0x1a4(%r13),%edx
    844b:	85 d2                	test   %edx,%edx
    844d:	0f 84 7d 05 00 00    	je     89d0 <main+0x730>
    8453:	41 3b 85 a4 01 00 00 	cmp    0x1a4(%r13),%eax
    845a:	0f 8c 48 15 00 00    	jl     99a8 <main+0x1708>
    8460:	e8 5b 99 00 00       	callq  11dc0 <dnsmasq_time>
    8465:	4c 8b 2d 4c 66 24 00 	mov    0x24664c(%rip),%r13        # 24eab8 <dnsmasq_daemon>
    846c:	48 89 c3             	mov    %rax,%rbx
    846f:	49 83 bd f0 00 00 00 	cmpq   $0x0,0xf0(%r13)
    8476:	00 
    8477:	74 0e                	je     8487 <main+0x1e7>
    8479:	49 83 bd 30 03 00 00 	cmpq   $0x0,0x330(%r13)
    8480:	00 
    8481:	0f 84 3d 05 00 00    	je     89c4 <main+0x724>
    8487:	49 8b 85 08 02 00 00 	mov    0x208(%r13),%rax
    848e:	48 85 c0             	test   %rax,%rax
    8491:	74 40                	je     84d3 <main+0x233>
    8493:	41 8b 55 04          	mov    0x4(%r13),%edx
    8497:	83 e2 20             	and    $0x20,%edx
    849a:	41 89 95 90 02 00 00 	mov    %edx,0x290(%r13)
    84a1:	8b 90 88 00 00 00    	mov    0x88(%rax),%edx
    84a7:	f6 c6 01             	test   $0x1,%dh
    84aa:	74 0b                	je     84b7 <main+0x217>
    84ac:	41 c7 85 94 02 00 00 	movl   $0x1,0x294(%r13)
    84b3:	01 00 00 00 
    84b7:	80 e6 20             	and    $0x20,%dh
    84ba:	74 0b                	je     84c7 <main+0x227>
    84bc:	41 c7 85 90 02 00 00 	movl   $0x1,0x290(%r13)
    84c3:	01 00 00 00 
    84c7:	48 8b 80 a8 00 00 00 	mov    0xa8(%rax),%rax
    84ce:	48 85 c0             	test   %rax,%rax
    84d1:	75 ce                	jne    84a1 <main+0x201>
    84d3:	49 83 bd 00 02 00 00 	cmpq   $0x0,0x200(%r13)
    84da:	00 
    84db:	0f 84 58 08 00 00    	je     8d39 <main+0xa99>
    84e1:	e8 2a bf 02 00       	callq  34410 <dhcp_common_init>
    84e6:	4c 8b 2d cb 65 24 00 	mov    0x2465cb(%rip),%r13        # 24eab8 <dnsmasq_daemon>
    84ed:	49 83 bd 00 02 00 00 	cmpq   $0x0,0x200(%r13)
    84f4:	00 
    84f5:	0f 84 1d 08 00 00    	je     8d18 <main+0xa78>
    84fb:	48 89 df             	mov    %rbx,%rdi
    84fe:	e8 3d c4 01 00       	callq  24940 <lease_init>
    8503:	4c 8b 2d ae 65 24 00 	mov    0x2465ae(%rip),%r13        # 24eab8 <dnsmasq_daemon>
    850a:	49 83 bd 00 02 00 00 	cmpq   $0x0,0x200(%r13)
    8511:	00 
    8512:	0f 84 0e 08 00 00    	je     8d26 <main+0xa86>
    8518:	e8 43 97 01 00       	callq  21c60 <dhcp_init>
    851d:	4c 8b 2d 94 65 24 00 	mov    0x246594(%rip),%r13        # 24eab8 <dnsmasq_daemon>
    8524:	49 83 bd 90 02 00 00 	cmpq   $0x0,0x290(%r13)
    852b:	00 
    852c:	75 0e                	jne    853c <main+0x29c>
    852e:	49 83 bd 78 02 00 00 	cmpq   $0x0,0x278(%r13)
    8535:	00 
    8536:	0f 84 13 05 00 00    	je     8a4f <main+0x7af>
    853c:	48 89 df             	mov    %rbx,%rdi
    853f:	e8 7c ed 02 00       	callq  372c0 <ra_init>
    8544:	4c 8b 2d 6d 65 24 00 	mov    0x24656d(%rip),%r13        # 24eab8 <dnsmasq_daemon>
    854b:	41 8b 85 94 02 00 00 	mov    0x294(%r13),%eax
    8552:	85 c0                	test   %eax,%eax
    8554:	75 0a                	jne    8560 <main+0x2c0>
    8556:	49 83 bd 78 02 00 00 	cmpq   $0x0,0x278(%r13)
    855d:	00 
    855e:	74 0c                	je     856c <main+0x2cc>
    8560:	e8 8b 63 02 00       	callq  2e8f0 <dhcp6_init>
    8565:	4c 8b 2d 4c 65 24 00 	mov    0x24654c(%rip),%r13        # 24eab8 <dnsmasq_daemon>
    856c:	49 83 bd 78 01 00 00 	cmpq   $0x0,0x178(%r13)
    8573:	00 
    8574:	74 05                	je     857b <main+0x2db>
    8576:	e8 b5 21 03 00       	callq  3a730 <ipset_init>
    857b:	e8 00 1c 02 00       	callq  2a180 <netlink_init>
    8580:	48 8b 15 31 65 24 00 	mov    0x246531(%rip),%rdx        # 24eab8 <dnsmasq_daemon>
    8587:	48 b8 00 20 00 00 80 	movabs $0x8000002000,%rax
    858e:	00 00 00 
    8591:	48 8b 0a             	mov    (%rdx),%rcx
    8594:	48 21 c1             	and    %rax,%rcx
    8597:	48 39 c1             	cmp    %rax,%rcx
    859a:	0f 84 dd 15 00 00    	je     9b7d <main+0x18dd>
    85a0:	bf 01 00 00 00       	mov    $0x1,%edi
    85a5:	e8 d6 62 01 00       	callq  1e880 <enumerate_interfaces>
    85aa:	85 c0                	test   %eax,%eax
    85ac:	74 7c                	je     862a <main+0x38a>
    85ae:	31 ff                	xor    %edi,%edi
    85b0:	e8 cb 62 01 00       	callq  1e880 <enumerate_interfaces>
    85b5:	85 c0                	test   %eax,%eax
    85b7:	74 71                	je     862a <main+0x38a>
    85b9:	48 8b 05 f8 64 24 00 	mov    0x2464f8(%rip),%rax        # 24eab8 <dnsmasq_daemon>
    85c0:	48 ba 00 20 00 00 80 	movabs $0x8000002000,%rdx
    85c7:	00 00 00 
    85ca:	48 85 10             	test   %rdx,(%rax)
    85cd:	0f 84 a8 03 00 00    	je     897b <main+0x6db>
    85d3:	bf 01 00 00 00       	mov    $0x1,%edi
    85d8:	e8 23 6a 01 00       	callq  1f000 <create_bound_listeners>
    85dd:	48 8b 05 d4 64 24 00 	mov    0x2464d4(%rip),%rax        # 24eab8 <dnsmasq_daemon>
    85e4:	f6 40 04 80          	testb  $0x80,0x4(%rax)
    85e8:	75 58                	jne    8642 <main+0x3a2>
    85ea:	4c 8b a0 30 01 00 00 	mov    0x130(%rax),%r12
    85f1:	4d 85 e4             	test   %r12,%r12
    85f4:	74 4c                	je     8642 <main+0x3a2>
    85f6:	4c 8d 2d 21 9e 03 00 	lea    0x39e21(%rip),%r13        # 4241e <meta+0xd3e>
    85fd:	eb 0a                	jmp    8609 <main+0x369>
    85ff:	4d 8b 64 24 28       	mov    0x28(%r12),%r12
    8604:	4d 85 e4             	test   %r12,%r12
    8607:	74 39                	je     8642 <main+0x3a2>
    8609:	49 8b 34 24          	mov    (%r12),%rsi
    860d:	48 85 f6             	test   %rsi,%rsi
    8610:	74 ed                	je     85ff <main+0x35f>
    8612:	41 8b 44 24 24       	mov    0x24(%r12),%eax
    8617:	85 c0                	test   %eax,%eax
    8619:	75 e4                	jne    85ff <main+0x35f>
    861b:	ba 02 00 00 00       	mov    $0x2,%edx
    8620:	4c 89 ef             	mov    %r13,%rdi
    8623:	e8 98 5a 02 00       	callq  2e0c0 <die>
    8628:	eb d5                	jmp    85ff <main+0x35f>
    862a:	48 8d 3d ff 99 03 00 	lea    0x399ff(%rip),%rdi        # 42030 <meta+0x950>
    8631:	ba 05 00 00 00       	mov    $0x5,%edx
    8636:	31 f6                	xor    %esi,%esi
    8638:	e8 83 5a 02 00       	callq  2e0c0 <die>
    863d:	e9 77 ff ff ff       	jmpq   85b9 <main+0x319>
    8642:	e8 59 c9 02 00       	callq  34fa0 <whichdevice>
    8647:	4c 8b 2d 6a 64 24 00 	mov    0x24646a(%rip),%r13        # 24eab8 <dnsmasq_daemon>
    864e:	48 89 44 24 18       	mov    %rax,0x18(%rsp)
    8653:	49 83 bd 00 02 00 00 	cmpq   $0x0,0x200(%r13)
    865a:	00 
    865b:	0f 84 34 15 00 00    	je     9b95 <main+0x18f5>
    8661:	49 83 bd 70 02 00 00 	cmpq   $0x0,0x270(%r13)
    8668:	00 
    8669:	0f 84 97 17 00 00    	je     9e06 <main+0x1b66>
    866f:	41 8b 85 8c 02 00 00 	mov    0x28c(%r13),%eax
    8676:	85 c0                	test   %eax,%eax
    8678:	89 04 24             	mov    %eax,(%rsp)
    867b:	74 2e                	je     86ab <main+0x40b>
    867d:	48 83 7c 24 18 00    	cmpq   $0x0,0x18(%rsp)
    8683:	c7 04 24 00 00 00 00 	movl   $0x0,(%rsp)
    868a:	74 1f                	je     86ab <main+0x40b>
    868c:	41 8b b5 40 06 00 00 	mov    0x640(%r13),%esi
    8693:	48 8b 7c 24 18       	mov    0x18(%rsp),%rdi
    8698:	e8 c3 c9 02 00       	callq  35060 <bindtodevice>
    869d:	4c 8b 2d 14 64 24 00 	mov    0x246414(%rip),%r13        # 24eab8 <dnsmasq_daemon>
    86a4:	c7 04 24 01 00 00 00 	movl   $0x1,(%rsp)
    86ab:	41 83 bd 94 02 00 00 	cmpl   $0x0,0x294(%r13)
    86b2:	00 
    86b3:	4c 89 e8             	mov    %r13,%rax
    86b6:	0f 84 e8 02 00 00    	je     89a4 <main+0x704>
    86bc:	49 83 bd 78 02 00 00 	cmpq   $0x0,0x278(%r13)
    86c3:	00 
    86c4:	0f 84 0a 16 00 00    	je     9cd4 <main+0x1a34>
    86ca:	bf 01 00 00 00       	mov    $0x1,%edi
    86cf:	e8 0c 6c 01 00       	callq  1f2e0 <join_multicast>
    86d4:	48 89 df             	mov    %rbx,%rdi
    86d7:	e8 24 b6 01 00       	callq  23d00 <lease_make_duid>
    86dc:	4c 8b 2d d5 63 24 00 	mov    0x2463d5(%rip),%r13        # 24eab8 <dnsmasq_daemon>
    86e3:	41 8b 85 9c 01 00 00 	mov    0x19c(%r13),%eax
    86ea:	85 c0                	test   %eax,%eax
    86ec:	0f 85 93 06 00 00    	jne    8d85 <main+0xae5>
    86f2:	49 83 bd 00 02 00 00 	cmpq   $0x0,0x200(%r13)
    86f9:	00 
    86fa:	0f 84 09 03 00 00    	je     8a09 <main+0x769>
    8700:	31 c0                	xor    %eax,%eax
    8702:	e8 89 2d 03 00       	callq  3b490 <inotify_dnsmasq_init>
    8707:	4c 8b 2d aa 63 24 00 	mov    0x2463aa(%rip),%r13        # 24eab8 <dnsmasq_daemon>
    870e:	41 f7 45 00 00 00 08 	testl  $0x80000,0x0(%r13)
    8715:	00 
    8716:	0f 85 14 03 00 00    	jne    8a30 <main+0x790>
    871c:	45 8b bd 9c 01 00 00 	mov    0x19c(%r13),%r15d
    8723:	45 85 ff             	test   %r15d,%r15d
    8726:	74 0c                	je     8734 <main+0x494>
    8728:	e8 c3 71 01 00       	callq  1f8f0 <pre_allocate_sfds>
    872d:	4c 8b 2d 84 63 24 00 	mov    0x246384(%rip),%r13        # 24eab8 <dnsmasq_daemon>
    8734:	49 83 bd 00 02 00 00 	cmpq   $0x0,0x200(%r13)
    873b:	00 
    873c:	0f 84 7e 12 00 00    	je     99c0 <main+0x1720>
    8742:	4d 8b b5 d0 00 00 00 	mov    0xd0(%r13),%r14
    8749:	4d 85 f6             	test   %r14,%r14
    874c:	0f 84 9f 02 00 00    	je     89f1 <main+0x751>
    8752:	49 83 bd 28 01 00 00 	cmpq   $0x0,0x128(%r13)
    8759:	00 
    875a:	0f 84 80 02 00 00    	je     89e0 <main+0x740>
    8760:	4c 89 f7             	mov    %r14,%rdi
    8763:	e8 18 db ff ff       	callq  6280 <getpwnam@plt>
    8768:	48 85 c0             	test   %rax,%rax
    876b:	49 89 c4             	mov    %rax,%r12
    876e:	0f 84 2d 14 00 00    	je     9ba1 <main+0x1901>
    8774:	8b 40 10             	mov    0x10(%rax),%eax
    8777:	4c 8b 2d 3a 63 24 00 	mov    0x24633a(%rip),%r13        # 24eab8 <dnsmasq_daemon>
    877e:	45 31 f6             	xor    %r14d,%r14d
    8781:	89 44 24 24          	mov    %eax,0x24(%rsp)
    8785:	41 8b 44 24 14       	mov    0x14(%r12),%eax
    878a:	89 44 24 28          	mov    %eax,0x28(%rsp)
    878e:	49 8b bd c0 00 00 00 	mov    0xc0(%r13),%rdi
    8795:	48 85 ff             	test   %rdi,%rdi
    8798:	74 18                	je     87b2 <main+0x512>
    879a:	e8 e1 da ff ff       	callq  6280 <getpwnam@plt>
    879f:	48 85 c0             	test   %rax,%rax
    87a2:	49 89 c4             	mov    %rax,%r12
    87a5:	4c 8b 2d 0c 63 24 00 	mov    0x24630c(%rip),%r13        # 24eab8 <dnsmasq_daemon>
    87ac:	0f 84 40 16 00 00    	je     9df2 <main+0x1b52>
    87b2:	49 8b bd c8 00 00 00 	mov    0xc8(%r13),%rdi
    87b9:	48 85 ff             	test   %rdi,%rdi
    87bc:	0f 84 6b 04 00 00    	je     8c2d <main+0x98d>
    87c2:	e8 39 db ff ff       	callq  6300 <getgrnam@plt>
    87c7:	48 85 c0             	test   %rax,%rax
    87ca:	48 89 44 24 08       	mov    %rax,0x8(%rsp)
    87cf:	0f 84 4a 04 00 00    	je     8c1f <main+0x97f>
    87d5:	4d 85 f6             	test   %r14,%r14
    87d8:	74 33                	je     880d <main+0x56d>
    87da:	48 8d 3d 52 9c 03 00 	lea    0x39c52(%rip),%rdi        # 42433 <meta+0xd53>
    87e1:	ba 01 00 00 00       	mov    $0x1,%edx
    87e6:	4c 89 f6             	mov    %r14,%rsi
    87e9:	e8 d2 58 02 00       	callq  2e0c0 <die>
    87ee:	4c 8b 2d c3 62 24 00 	mov    0x2462c3(%rip),%r13        # 24eab8 <dnsmasq_daemon>
    87f5:	45 8b b5 00 01 00 00 	mov    0x100(%r13),%r14d
    87fc:	45 85 f6             	test   %r14d,%r14d
    87ff:	75 0c                	jne    880d <main+0x56d>
    8801:	48 83 7c 24 08 00    	cmpq   $0x0,0x8(%rsp)
    8807:	0f 84 01 14 00 00    	je     9c0e <main+0x196e>
    880d:	4d 85 e4             	test   %r12,%r12
    8810:	0f 84 81 11 00 00    	je     9997 <main+0x16f7>
    8816:	45 8b 6c 24 10       	mov    0x10(%r12),%r13d
    881b:	45 31 f6             	xor    %r14d,%r14d
    881e:	48 c7 44 24 10 00 00 	movq   $0x0,0x10(%rsp)
    8825:	00 00 
    8827:	45 85 ed             	test   %r13d,%r13d
    882a:	0f 85 36 12 00 00    	jne    9a66 <main+0x17c6>
    8830:	48 8d 7c 24 44       	lea    0x44(%rsp),%rdi
    8835:	be 01 00 00 00       	mov    $0x1,%esi
    883a:	e8 71 93 00 00       	callq  11bb0 <safe_pipe>
    883f:	8b 44 24 48          	mov    0x48(%rsp),%eax
    8843:	31 c9                	xor    %ecx,%ecx
    8845:	31 d2                	xor    %edx,%edx
    8847:	be 15 00 00 00       	mov    $0x15,%esi
    884c:	44 8b 7c 24 44       	mov    0x44(%rsp),%r15d
    8851:	89 05 19 61 24 00    	mov    %eax,0x246119(%rip)        # 24e970 <pipewrite>
    8857:	8b 3d 13 61 24 00    	mov    0x246113(%rip),%edi        # 24e970 <pipewrite>
    885d:	e8 be 86 01 00       	callq  20f20 <send_event>
    8862:	48 8b 05 4f 62 24 00 	mov    0x24624f(%rip),%rax        # 24eab8 <dnsmasq_daemon>
    8869:	c7 44 24 50 ff ff ff 	movl   $0xffffffff,0x50(%rsp)
    8870:	ff 
    8871:	f6 00 40             	testb  $0x40,(%rax)
    8874:	0f 85 f5 01 00 00    	jne    8a6f <main+0x7cf>
    887a:	48 8d 3d 83 a8 03 00 	lea    0x3a883(%rip),%rdi        # 43104 <meta+0x1a24>
    8881:	e8 9a d7 ff ff       	callq  6020 <chdir@plt>
    8886:	85 c0                	test   %eax,%eax
    8888:	0f 85 4c 15 00 00    	jne    9dda <main+0x1b3a>
    888e:	4c 8b 2d 23 62 24 00 	mov    0x246223(%rip),%r13        # 24eab8 <dnsmasq_daemon>
    8895:	41 f7 45 00 00 00 01 	testl  $0x10000,0x0(%r13)
    889c:	00 
    889d:	0f 84 83 14 00 00    	je     9d26 <main+0x1a86>
    88a3:	49 83 bd 20 01 00 00 	cmpq   $0x0,0x120(%r13)
    88aa:	00 
    88ab:	0f 84 be 01 00 00    	je     8a6f <main+0x7cf>
    88b1:	e8 ca d6 ff ff       	callq  5f80 <getpid@plt>
    88b6:	41 89 c0             	mov    %eax,%r8d
    88b9:	48 8b 05 f8 61 24 00 	mov    0x2461f8(%rip),%rax        # 24eab8 <dnsmasq_daemon>
    88c0:	48 8d 0d 86 9b 03 00 	lea    0x39b86(%rip),%rcx        # 4244d <meta+0xd6d>
    88c7:	48 83 ca ff          	or     $0xffffffffffffffff,%rdx
    88cb:	be 01 00 00 00       	mov    $0x1,%esi
    88d0:	48 8b b8 60 03 00 00 	mov    0x360(%rax),%rdi
    88d7:	31 c0                	xor    %eax,%eax
    88d9:	e8 b2 dd ff ff       	callq  6690 <__sprintf_chk@plt>
    88de:	48 8b 05 d3 61 24 00 	mov    0x2461d3(%rip),%rax        # 24eab8 <dnsmasq_daemon>
    88e5:	48 8b b8 20 01 00 00 	mov    0x120(%rax),%rdi
    88ec:	e8 9f d5 ff ff       	callq  5e90 <unlink@plt>
    88f1:	48 8b 05 c0 61 24 00 	mov    0x2461c0(%rip),%rax        # 24eab8 <dnsmasq_daemon>
    88f8:	ba a4 01 00 00       	mov    $0x1a4,%edx
    88fd:	be c1 02 00 00       	mov    $0x2c1,%esi
    8902:	48 8b b8 20 01 00 00 	mov    0x120(%rax),%rdi
    8909:	31 c0                	xor    %eax,%eax
    890b:	e8 70 db ff ff       	callq  6480 <open64@plt>
    8910:	83 f8 ff             	cmp    $0xffffffff,%eax
    8913:	41 89 c5             	mov    %eax,%r13d
    8916:	0f 84 46 01 00 00    	je     8a62 <main+0x7c2>
    891c:	48 8b 05 95 61 24 00 	mov    0x246195(%rip),%rax        # 24eab8 <dnsmasq_daemon>
    8923:	48 83 c9 ff          	or     $0xffffffffffffffff,%rcx
    8927:	48 8b b0 60 03 00 00 	mov    0x360(%rax),%rsi
    892e:	31 c0                	xor    %eax,%eax
    8930:	48 89 f7             	mov    %rsi,%rdi
    8933:	f2 ae                	repnz scas %es:(%rdi),%al
    8935:	44 89 ef             	mov    %r13d,%edi
    8938:	48 89 c8             	mov    %rcx,%rax
    893b:	31 c9                	xor    %ecx,%ecx
    893d:	48 f7 d0             	not    %rax
    8940:	48 8d 50 ff          	lea    -0x1(%rax),%rdx
    8944:	e8 e7 9c 00 00       	callq  12630 <read_write>
    8949:	85 c0                	test   %eax,%eax
    894b:	0f 85 73 12 00 00    	jne    9bc4 <main+0x1924>
    8951:	e8 2a d5 ff ff       	callq  5e80 <__errno_location@plt>
    8956:	48 8b 15 5b 61 24 00 	mov    0x24615b(%rip),%rdx        # 24eab8 <dnsmasq_daemon>
    895d:	8b 7c 24 50          	mov    0x50(%rsp),%edi
    8961:	be 0d 00 00 00       	mov    $0xd,%esi
    8966:	48 8b 8a 20 01 00 00 	mov    0x120(%rdx),%rcx
    896d:	8b 10                	mov    (%rax),%edx
    896f:	e8 ac 85 01 00       	callq  20f20 <send_event>
    8974:	31 ff                	xor    %edi,%edi
    8976:	e8 45 d5 ff ff       	callq  5ec0 <_exit@plt>
    897b:	e8 a0 65 01 00       	callq  1ef20 <create_wildcard_listeners>
    8980:	c7 04 24 00 00 00 00 	movl   $0x0,(%rsp)
    8987:	48 c7 44 24 18 00 00 	movq   $0x0,0x18(%rsp)
    898e:	00 00 
    8990:	48 8b 05 21 61 24 00 	mov    0x246121(%rip),%rax        # 24eab8 <dnsmasq_daemon>
    8997:	83 b8 94 02 00 00 00 	cmpl   $0x0,0x294(%rax)
    899e:	0f 85 26 fd ff ff    	jne    86ca <main+0x42a>
    89a4:	48 83 b8 78 02 00 00 	cmpq   $0x0,0x278(%rax)
    89ab:	00 
    89ac:	0f 85 18 fd ff ff    	jne    86ca <main+0x42a>
    89b2:	83 b8 90 02 00 00 00 	cmpl   $0x0,0x290(%rax)
    89b9:	0f 84 15 fd ff ff    	je     86d4 <main+0x434>
    89bf:	e9 06 fd ff ff       	jmpq   86ca <main+0x42a>
    89c4:	49 89 85 30 03 00 00 	mov    %rax,0x330(%r13)
    89cb:	e9 b7 fa ff ff       	jmpq   8487 <main+0x1e7>
    89d0:	41 c7 85 a4 01 00 00 	movl   $0x400,0x1a4(%r13)
    89d7:	00 04 00 00 
    89db:	e9 73 fa ff ff       	jmpq   8453 <main+0x1b3>
    89e0:	49 83 bd d8 00 00 00 	cmpq   $0x0,0xd8(%r13)
    89e7:	00 
    89e8:	0f 85 72 fd ff ff    	jne    8760 <main+0x4c0>
    89ee:	45 31 f6             	xor    %r14d,%r14d
    89f1:	c7 44 24 28 00 00 00 	movl   $0x0,0x28(%rsp)
    89f8:	00 
    89f9:	c7 44 24 24 00 00 00 	movl   $0x0,0x24(%rsp)
    8a00:	00 
    8a01:	45 31 e4             	xor    %r12d,%r12d
    8a04:	e9 85 fd ff ff       	jmpq   878e <main+0x4ee>
    8a09:	41 83 bd 94 02 00 00 	cmpl   $0x0,0x294(%r13)
    8a10:	00 
    8a11:	0f 85 e9 fc ff ff    	jne    8700 <main+0x460>
    8a17:	41 f7 45 00 00 00 08 	testl  $0x80000,0x0(%r13)
    8a1e:	00 
    8a1f:	41 c7 85 44 06 00 00 	movl   $0xffffffff,0x644(%r13)
    8a26:	ff ff ff ff 
    8a2a:	0f 84 04 fd ff ff    	je     8734 <main+0x494>
    8a30:	48 8d 3d 21 96 03 00 	lea    0x39621(%rip),%rdi        # 42058 <meta+0x978>
    8a37:	ba 01 00 00 00       	mov    $0x1,%edx
    8a3c:	31 f6                	xor    %esi,%esi
    8a3e:	e8 7d 56 02 00       	callq  2e0c0 <die>
    8a43:	4c 8b 2d 6e 60 24 00 	mov    0x24606e(%rip),%r13        # 24eab8 <dnsmasq_daemon>
    8a4a:	e9 cd fc ff ff       	jmpq   871c <main+0x47c>
    8a4f:	41 83 bd 94 02 00 00 	cmpl   $0x0,0x294(%r13)
    8a56:	00 
    8a57:	0f 84 0f fb ff ff    	je     856c <main+0x2cc>
    8a5d:	e9 fe fa ff ff       	jmpq   8560 <main+0x2c0>
    8a62:	e8 c9 d5 ff ff       	callq  6030 <getuid@plt>
    8a67:	85 c0                	test   %eax,%eax
    8a69:	0f 84 e2 fe ff ff    	je     8951 <main+0x6b1>
    8a6f:	8b 74 24 50          	mov    0x50(%rsp),%esi
    8a73:	4c 89 e7             	mov    %r12,%rdi
    8a76:	e8 75 4c 02 00       	callq  2d6f0 <log_start>
    8a7b:	4c 8b 2d 36 60 24 00 	mov    0x246036(%rip),%r13        # 24eab8 <dnsmasq_daemon>
    8a82:	89 44 24 2c          	mov    %eax,0x2c(%rsp)
    8a86:	41 f6 45 00 40       	testb  $0x40,0x0(%r13)
    8a8b:	0f 84 3b 10 00 00    	je     9acc <main+0x182c>
    8a91:	49 83 bd 00 02 00 00 	cmpq   $0x0,0x200(%r13)
    8a98:	00 
    8a99:	41 c7 85 3c 06 00 00 	movl   $0xffffffff,0x63c(%r13)
    8aa0:	ff ff ff ff 
    8aa4:	0f 84 b2 10 00 00    	je     9b5c <main+0x18bc>
    8aaa:	49 83 bd 28 01 00 00 	cmpq   $0x0,0x128(%r13)
    8ab1:	00 
    8ab2:	0f 84 ba 02 00 00    	je     8d72 <main+0xad2>
    8ab8:	8b 3d b2 5e 24 00    	mov    0x245eb2(%rip),%edi        # 24e970 <pipewrite>
    8abe:	8b 4c 24 28          	mov    0x28(%rsp),%ecx
    8ac2:	49 89 e8             	mov    %rbp,%r8
    8ac5:	8b 54 24 24          	mov    0x24(%rsp),%edx
    8ac9:	8b 74 24 50          	mov    0x50(%rsp),%esi
    8acd:	e8 8e 1f 02 00       	callq  2aa60 <create_helper>
    8ad2:	41 89 85 3c 06 00 00 	mov    %eax,0x63c(%r13)
    8ad9:	4c 8b 2d d8 5f 24 00 	mov    0x245fd8(%rip),%r13        # 24eab8 <dnsmasq_daemon>
    8ae0:	41 f6 45 00 40       	testb  $0x40,0x0(%r13)
    8ae5:	0f 85 59 01 00 00    	jne    8c44 <main+0x9a4>
    8aeb:	e8 40 d5 ff ff       	callq  6030 <getuid@plt>
    8af0:	85 c0                	test   %eax,%eax
    8af2:	0f 85 4c 01 00 00    	jne    8c44 <main+0x9a4>
    8af8:	48 83 7c 24 08 00    	cmpq   $0x0,0x8(%rsp)
    8afe:	74 2e                	je     8b2e <main+0x88e>
    8b00:	4c 8d 6c 24 54       	lea    0x54(%rsp),%r13
    8b05:	31 ff                	xor    %edi,%edi
    8b07:	4c 89 ee             	mov    %r13,%rsi
    8b0a:	e8 81 d6 ff ff       	callq  6190 <setgroups@plt>
    8b0f:	83 c0 01             	add    $0x1,%eax
    8b12:	0f 84 b1 13 00 00    	je     9ec9 <main+0x1c29>
    8b18:	48 8b 44 24 08       	mov    0x8(%rsp),%rax
    8b1d:	8b 78 10             	mov    0x10(%rax),%edi
    8b20:	e8 9b d9 ff ff       	callq  64c0 <setgid@plt>
    8b25:	83 c0 01             	add    $0x1,%eax
    8b28:	0f 84 9b 13 00 00    	je     9ec9 <main+0x1c29>
    8b2e:	4d 85 e4             	test   %r12,%r12
    8b31:	0f 84 0d 01 00 00    	je     8c44 <main+0x9a4>
    8b37:	41 83 7c 24 10 00    	cmpl   $0x0,0x10(%r12)
    8b3d:	0f 84 01 01 00 00    	je     8c44 <main+0x9a4>
    8b43:	e8 48 67 01 00       	callq  1f290 <is_dad_listeners>
    8b48:	85 c0                	test   %eax,%eax
    8b4a:	0f 85 f5 13 00 00    	jne    9f45 <main+0x1ca5>
    8b50:	48 8b 05 61 5f 24 00 	mov    0x245f61(%rip),%rax        # 24eab8 <dnsmasq_daemon>
    8b57:	f6 40 04 80          	testb  $0x80,0x4(%rax)
    8b5b:	0f 85 e4 13 00 00    	jne    9f45 <main+0x1ca5>
    8b61:	48 b8 80 30 00 00 80 	movabs $0x308000003080,%rax
    8b68:	30 00 00 
    8b6b:	41 c7 46 08 80 30 00 	movl   $0x3080,0x8(%r14)
    8b72:	00 
    8b73:	49 89 06             	mov    %rax,(%r14)
    8b76:	48 8b 7c 24 10       	mov    0x10(%rsp),%rdi
    8b7b:	4c 89 f6             	mov    %r14,%rsi
    8b7e:	e8 7d d5 ff ff       	callq  6100 <capset@plt>
    8b83:	83 c0 01             	add    $0x1,%eax
    8b86:	0f 84 67 13 00 00    	je     9ef3 <main+0x1c53>
    8b8c:	45 31 c0             	xor    %r8d,%r8d
    8b8f:	31 c9                	xor    %ecx,%ecx
    8b91:	31 d2                	xor    %edx,%edx
    8b93:	31 c0                	xor    %eax,%eax
    8b95:	be 01 00 00 00       	mov    $0x1,%esi
    8b9a:	bf 08 00 00 00       	mov    $0x8,%edi
    8b9f:	e8 6c d7 ff ff       	callq  6310 <prctl@plt>
    8ba4:	83 c0 01             	add    $0x1,%eax
    8ba7:	0f 84 46 13 00 00    	je     9ef3 <main+0x1c53>
    8bad:	41 8b 7c 24 10       	mov    0x10(%r12),%edi
    8bb2:	e8 39 da ff ff       	callq  65f0 <setuid@plt>
    8bb7:	83 c0 01             	add    $0x1,%eax
    8bba:	0f 84 49 13 00 00    	je     9f09 <main+0x1c69>
    8bc0:	e8 cb 66 01 00       	callq  1f290 <is_dad_listeners>
    8bc5:	85 c0                	test   %eax,%eax
    8bc7:	75 11                	jne    8bda <main+0x93a>
    8bc9:	48 8b 05 e8 5e 24 00 	mov    0x245ee8(%rip),%rax        # 24eab8 <dnsmasq_daemon>
    8bd0:	f6 40 04 80          	testb  $0x80,0x4(%rax)
    8bd4:	0f 84 59 13 00 00    	je     9f33 <main+0x1c93>
    8bda:	48 b8 00 34 00 00 00 	movabs $0x340000003400,%rax
    8be1:	34 00 00 
    8be4:	49 89 06             	mov    %rax,(%r14)
    8be7:	48 8b 7c 24 10       	mov    0x10(%rsp),%rdi
    8bec:	41 c7 46 08 00 00 00 	movl   $0x0,0x8(%r14)
    8bf3:	00 
    8bf4:	4c 89 f6             	mov    %r14,%rsi
    8bf7:	e8 04 d5 ff ff       	callq  6100 <capset@plt>
    8bfc:	83 c0 01             	add    $0x1,%eax
    8bff:	75 43                	jne    8c44 <main+0x9a4>
    8c01:	e8 7a d2 ff ff       	callq  5e80 <__errno_location@plt>
    8c06:	8b 10                	mov    (%rax),%edx
    8c08:	31 c9                	xor    %ecx,%ecx
    8c0a:	8b 7c 24 50          	mov    0x50(%rsp),%edi
    8c0e:	be 0c 00 00 00       	mov    $0xc,%esi
    8c13:	e8 08 83 01 00       	callq  20f20 <send_event>
    8c18:	31 ff                	xor    %edi,%edi
    8c1a:	e8 a1 d2 ff ff       	callq  5ec0 <_exit@plt>
    8c1f:	4c 8b 2d 92 5e 24 00 	mov    0x245e92(%rip),%r13        # 24eab8 <dnsmasq_daemon>
    8c26:	4d 8b b5 c8 00 00 00 	mov    0xc8(%r13),%r14
    8c2d:	4d 85 f6             	test   %r14,%r14
    8c30:	48 c7 44 24 08 00 00 	movq   $0x0,0x8(%rsp)
    8c37:	00 00 
    8c39:	0f 85 9b fb ff ff    	jne    87da <main+0x53a>
    8c3f:	e9 b1 fb ff ff       	jmpq   87f5 <main+0x555>
    8c44:	48 8b 7c 24 10       	mov    0x10(%rsp),%rdi
    8c49:	e8 e2 d1 ff ff       	callq  5e30 <free@plt>
    8c4e:	4c 89 f7             	mov    %r14,%rdi
    8c51:	e8 da d1 ff ff       	callq  5e30 <free@plt>
    8c56:	4c 8b 2d 5b 5e 24 00 	mov    0x245e5b(%rip),%r13        # 24eab8 <dnsmasq_daemon>
    8c5d:	41 f6 45 00 40       	testb  $0x40,0x0(%r13)
    8c62:	0f 85 c6 0e 00 00    	jne    9b2e <main+0x188e>
    8c68:	41 f6 45 05 01       	testb  $0x1,0x5(%r13)
    8c6d:	0f 84 31 01 00 00    	je     8da4 <main+0xb04>
    8c73:	49 8b bd 08 03 00 00 	mov    0x308(%r13),%rdi
    8c7a:	48 85 ff             	test   %rdi,%rdi
    8c7d:	0f 84 7b 11 00 00    	je     9dfe <main+0x1b5e>
    8c83:	e8 48 d3 ff ff       	callq  5fd0 <opendir@plt>
    8c88:	48 85 c0             	test   %rax,%rax
    8c8b:	0f 84 1a 10 00 00    	je     9cab <main+0x1a0b>
    8c91:	48 89 c7             	mov    %rax,%rdi
    8c94:	45 31 e4             	xor    %r12d,%r12d
    8c97:	e8 34 d5 ff ff       	callq  61d0 <closedir@plt>
    8c9c:	4c 8b 2d 15 5e 24 00 	mov    0x245e15(%rip),%r13        # 24eab8 <dnsmasq_daemon>
    8ca3:	4d 8b b5 10 03 00 00 	mov    0x310(%r13),%r14
    8caa:	4d 85 f6             	test   %r14,%r14
    8cad:	75 1e                	jne    8ccd <main+0xa2d>
    8caf:	e9 f3 00 00 00       	jmpq   8da7 <main+0xb07>
    8cb4:	0f 1f 40 00          	nopl   0x0(%rax)
    8cb8:	48 89 c7             	mov    %rax,%rdi
    8cbb:	e8 10 d5 ff ff       	callq  61d0 <closedir@plt>
    8cc0:	4d 8b 76 18          	mov    0x18(%r14),%r14
    8cc4:	4d 85 f6             	test   %r14,%r14
    8cc7:	0f 84 2d 10 00 00    	je     9cfa <main+0x1a5a>
    8ccd:	49 8b 7e 08          	mov    0x8(%r14),%rdi
    8cd1:	41 c7 46 10 00 00 00 	movl   $0x0,0x10(%r14)
    8cd8:	00 
    8cd9:	e8 f2 d2 ff ff       	callq  5fd0 <opendir@plt>
    8cde:	48 85 c0             	test   %rax,%rax
    8ce1:	75 d5                	jne    8cb8 <main+0xa18>
    8ce3:	48 8b 05 ce 5d 24 00 	mov    0x245dce(%rip),%rax        # 24eab8 <dnsmasq_daemon>
    8cea:	41 c7 46 10 01 00 00 	movl   $0x1,0x10(%r14)
    8cf1:	00 
    8cf2:	f6 40 06 10          	testb  $0x10,0x6(%rax)
    8cf6:	75 c8                	jne    8cc0 <main+0xa20>
    8cf8:	e8 83 d1 ff ff       	callq  5e80 <__errno_location@plt>
    8cfd:	49 8b 4e 08          	mov    0x8(%r14),%rcx
    8d01:	8b 7c 24 50          	mov    0x50(%rsp),%edi
    8d05:	8b 10                	mov    (%rax),%edx
    8d07:	be 14 00 00 00       	mov    $0x14,%esi
    8d0c:	e8 0f 82 01 00       	callq  20f20 <send_event>
    8d11:	31 ff                	xor    %edi,%edi
    8d13:	e8 a8 d1 ff ff       	callq  5ec0 <_exit@plt>
    8d18:	41 83 bd 94 02 00 00 	cmpl   $0x0,0x294(%r13)
    8d1f:	00 
    8d20:	0f 85 d5 f7 ff ff    	jne    84fb <main+0x25b>
    8d26:	49 83 bd 70 02 00 00 	cmpq   $0x0,0x270(%r13)
    8d2d:	00 
    8d2e:	0f 85 e4 f7 ff ff    	jne    8518 <main+0x278>
    8d34:	e9 eb f7 ff ff       	jmpq   8524 <main+0x284>
    8d39:	41 83 bd 94 02 00 00 	cmpl   $0x0,0x294(%r13)
    8d40:	00 
    8d41:	0f 85 9a f7 ff ff    	jne    84e1 <main+0x241>
    8d47:	49 83 bd 70 02 00 00 	cmpq   $0x0,0x270(%r13)
    8d4e:	00 
    8d4f:	0f 85 8c f7 ff ff    	jne    84e1 <main+0x241>
    8d55:	49 83 bd 78 02 00 00 	cmpq   $0x0,0x278(%r13)
    8d5c:	00 
    8d5d:	0f 85 7e f7 ff ff    	jne    84e1 <main+0x241>
    8d63:	41 f7 45 04 00 01 20 	testl  $0x200100,0x4(%r13)
    8d6a:	00 
    8d6b:	74 b9                	je     8d26 <main+0xa86>
    8d6d:	e9 6f f7 ff ff       	jmpq   84e1 <main+0x241>
    8d72:	49 83 bd d8 00 00 00 	cmpq   $0x0,0xd8(%r13)
    8d79:	00 
    8d7a:	0f 85 38 fd ff ff    	jne    8ab8 <main+0x818>
    8d80:	e9 5b fd ff ff       	jmpq   8ae0 <main+0x840>
    8d85:	e8 76 1d 00 00       	callq  ab00 <cache_init>
    8d8a:	4c 8b 2d 27 5d 24 00 	mov    0x245d27(%rip),%r13        # 24eab8 <dnsmasq_daemon>
    8d91:	41 83 bd 9c 01 00 00 	cmpl   $0x0,0x19c(%r13)
    8d98:	00 
    8d99:	0f 85 61 f9 ff ff    	jne    8700 <main+0x460>
    8d9f:	e9 4e f9 ff ff       	jmpq   86f2 <main+0x452>
    8da4:	45 31 e4             	xor    %r12d,%r12d
    8da7:	41 83 bd 9c 01 00 00 	cmpl   $0x0,0x19c(%r13)
    8dae:	00 
    8daf:	0f 84 5a 0d 00 00    	je     9b0f <main+0x186f>
    8db5:	41 8b 8d 94 01 00 00 	mov    0x194(%r13),%ecx
    8dbc:	48 8d 15 fa 54 03 00 	lea    0x354fa(%rip),%rdx        # 3e2bd <_IO_stdin_used+0x95d>
    8dc3:	85 c9                	test   %ecx,%ecx
    8dc5:	0f 84 2c 0d 00 00    	je     9af7 <main+0x1857>
    8dcb:	48 8d 35 0e 93 03 00 	lea    0x3930e(%rip),%rsi        # 420e0 <meta+0xa00>
    8dd2:	bf 06 00 00 00       	mov    $0x6,%edi
    8dd7:	31 c0                	xor    %eax,%eax
    8dd9:	e8 02 4b 02 00       	callq  2d8e0 <my_syslog>
    8dde:	48 8b 05 d3 5c 24 00 	mov    0x245cd3(%rip),%rax        # 24eab8 <dnsmasq_daemon>
    8de5:	f6 40 06 02          	testb  $0x2,0x6(%rax)
    8de9:	0f 85 7f 10 00 00    	jne    9e6e <main+0x1bce>
    8def:	48 8d 15 e2 90 03 00 	lea    0x390e2(%rip),%rdx        # 41ed8 <meta+0x7f8>
    8df6:	48 8d 35 54 96 03 00 	lea    0x39654(%rip),%rsi        # 42451 <meta+0xd71>
    8dfd:	31 c0                	xor    %eax,%eax
    8dff:	bf 06 00 00 00       	mov    $0x6,%edi
    8e04:	e8 d7 4a 02 00       	callq  2d8e0 <my_syslog>
    8e09:	83 7c 24 2c 00       	cmpl   $0x0,0x2c(%rsp)
    8e0e:	74 2d                	je     8e3d <main+0xb9d>
    8e10:	8b 7c 24 2c          	mov    0x2c(%rsp),%edi
    8e14:	e8 e7 d7 ff ff       	callq  6600 <strerror@plt>
    8e19:	48 8b 15 98 5c 24 00 	mov    0x245c98(%rip),%rdx        # 24eab8 <dnsmasq_daemon>
    8e20:	48 8d 35 31 93 03 00 	lea    0x39331(%rip),%rsi        # 42158 <meta+0xa78>
    8e27:	48 89 c1             	mov    %rax,%rcx
    8e2a:	bf 04 00 00 00       	mov    $0x4,%edi
    8e2f:	31 c0                	xor    %eax,%eax
    8e31:	48 8b 92 88 01 00 00 	mov    0x188(%rdx),%rdx
    8e38:	e8 a3 4a 02 00       	callq  2d8e0 <my_syslog>
    8e3d:	48 8b 05 74 5c 24 00 	mov    0x245c74(%rip),%rax        # 24eab8 <dnsmasq_daemon>
    8e44:	f7 00 00 20 00 00    	testl  $0x2000,(%rax)
    8e4a:	0f 85 02 0d 00 00    	jne    9b52 <main+0x18b2>
    8e50:	f6 40 04 80          	testb  $0x80,0x4(%rax)
    8e54:	0f 84 f6 0f 00 00    	je     9e50 <main+0x1bb0>
    8e5a:	e8 d1 63 01 00       	callq  1f230 <warn_int_names>
    8e5f:	4c 8b 2d 52 5c 24 00 	mov    0x245c52(%rip),%r13        # 24eab8 <dnsmasq_daemon>
    8e66:	41 f7 45 00 00 20 00 	testl  $0x2000,0x0(%r13)
    8e6d:	00 
    8e6e:	75 47                	jne    8eb7 <main+0xc17>
    8e70:	4d 8b b5 30 01 00 00 	mov    0x130(%r13),%r14
    8e77:	4d 85 f6             	test   %r14,%r14
    8e7a:	74 3b                	je     8eb7 <main+0xc17>
    8e7c:	4c 8d 2d 05 93 03 00 	lea    0x39305(%rip),%r13        # 42188 <meta+0xaa8>
    8e83:	eb 09                	jmp    8e8e <main+0xbee>
    8e85:	4d 8b 76 28          	mov    0x28(%r14),%r14
    8e89:	4d 85 f6             	test   %r14,%r14
    8e8c:	74 22                	je     8eb0 <main+0xc10>
    8e8e:	49 8b 16             	mov    (%r14),%rdx
    8e91:	48 85 d2             	test   %rdx,%rdx
    8e94:	74 ef                	je     8e85 <main+0xbe5>
    8e96:	45 8b 5e 24          	mov    0x24(%r14),%r11d
    8e9a:	45 85 db             	test   %r11d,%r11d
    8e9d:	75 e6                	jne    8e85 <main+0xbe5>
    8e9f:	4c 89 ee             	mov    %r13,%rsi
    8ea2:	bf 04 00 00 00       	mov    $0x4,%edi
    8ea7:	31 c0                	xor    %eax,%eax
    8ea9:	e8 32 4a 02 00       	callq  2d8e0 <my_syslog>
    8eae:	eb d5                	jmp    8e85 <main+0xbe5>
    8eb0:	4c 8b 2d 01 5c 24 00 	mov    0x245c01(%rip),%r13        # 24eab8 <dnsmasq_daemon>
    8eb7:	41 83 bd 9c 01 00 00 	cmpl   $0x0,0x19c(%r13)
    8ebe:	00 
    8ebf:	74 5f                	je     8f20 <main+0xc80>
    8ec1:	41 f7 45 00 00 01 00 	testl  $0x100,0x0(%r13)
    8ec8:	00 
    8ec9:	74 55                	je     8f20 <main+0xc80>
    8ecb:	49 8b 45 38          	mov    0x38(%r13),%rax
    8ecf:	48 85 c0             	test   %rax,%rax
    8ed2:	74 20                	je     8ef4 <main+0xc54>
    8ed4:	83 78 08 00          	cmpl   $0x0,0x8(%rax)
    8ed8:	75 1a                	jne    8ef4 <main+0xc54>
    8eda:	48 8d 35 d7 92 03 00 	lea    0x392d7(%rip),%rsi        # 421b8 <meta+0xad8>
    8ee1:	bf 04 00 00 00       	mov    $0x4,%edi
    8ee6:	31 c0                	xor    %eax,%eax
    8ee8:	e8 f3 49 02 00       	callq  2d8e0 <my_syslog>
    8eed:	4c 8b 2d c4 5b 24 00 	mov    0x245bc4(%rip),%r13        # 24eab8 <dnsmasq_daemon>
    8ef4:	49 83 bd 70 01 00 00 	cmpq   $0x0,0x170(%r13)
    8efb:	00 
    8efc:	49 c7 45 38 00 00 00 	movq   $0x0,0x38(%r13)
    8f03:	00 
    8f04:	75 1a                	jne    8f20 <main+0xc80>
    8f06:	48 8d 35 eb 92 03 00 	lea    0x392eb(%rip),%rsi        # 421f8 <meta+0xb18>
    8f0d:	bf 04 00 00 00       	mov    $0x4,%edi
    8f12:	31 c0                	xor    %eax,%eax
    8f14:	e8 c7 49 02 00       	callq  2d8e0 <my_syslog>
    8f19:	4c 8b 2d 98 5b 24 00 	mov    0x245b98(%rip),%r13        # 24eab8 <dnsmasq_daemon>
    8f20:	41 8b 95 90 01 00 00 	mov    0x190(%r13),%edx
    8f27:	85 d2                	test   %edx,%edx
    8f29:	74 1a                	je     8f45 <main+0xca5>
    8f2b:	48 8d 35 ee 92 03 00 	lea    0x392ee(%rip),%rsi        # 42220 <meta+0xb40>
    8f32:	bf 06 00 00 00       	mov    $0x6,%edi
    8f37:	31 c0                	xor    %eax,%eax
    8f39:	e8 a2 49 02 00       	callq  2d8e0 <my_syslog>
    8f3e:	4c 8b 2d 73 5b 24 00 	mov    0x245b73(%rip),%r13        # 24eab8 <dnsmasq_daemon>
    8f45:	4d 8b b5 00 02 00 00 	mov    0x200(%r13),%r14
    8f4c:	4d 85 f6             	test   %r14,%r14
    8f4f:	74 20                	je     8f71 <main+0xcd1>
    8f51:	4c 89 f6             	mov    %r14,%rsi
    8f54:	bf 02 00 00 00       	mov    $0x2,%edi
    8f59:	e8 52 c8 02 00       	callq  357b0 <log_context>
    8f5e:	4d 8b b6 a8 00 00 00 	mov    0xa8(%r14),%r14
    8f65:	4d 85 f6             	test   %r14,%r14
    8f68:	75 e7                	jne    8f51 <main+0xcb1>
    8f6a:	4c 8b 2d 47 5b 24 00 	mov    0x245b47(%rip),%r13        # 24eab8 <dnsmasq_daemon>
    8f71:	4d 8b b5 70 02 00 00 	mov    0x270(%r13),%r14
    8f78:	4d 85 f6             	test   %r14,%r14
    8f7b:	74 1d                	je     8f9a <main+0xcfa>
    8f7d:	4c 89 f6             	mov    %r14,%rsi
    8f80:	bf 02 00 00 00       	mov    $0x2,%edi
    8f85:	e8 16 cc 02 00       	callq  35ba0 <log_relay>
    8f8a:	4d 8b 76 38          	mov    0x38(%r14),%r14
    8f8e:	4d 85 f6             	test   %r14,%r14
    8f91:	75 ea                	jne    8f7d <main+0xcdd>
    8f93:	4c 8b 2d 1e 5b 24 00 	mov    0x245b1e(%rip),%r13        # 24eab8 <dnsmasq_daemon>
    8f9a:	4d 8b b5 08 02 00 00 	mov    0x208(%r13),%r14
    8fa1:	4d 85 f6             	test   %r14,%r14
    8fa4:	74 20                	je     8fc6 <main+0xd26>
    8fa6:	4c 89 f6             	mov    %r14,%rsi
    8fa9:	bf 0a 00 00 00       	mov    $0xa,%edi
    8fae:	e8 fd c7 02 00       	callq  357b0 <log_context>
    8fb3:	4d 8b b6 a8 00 00 00 	mov    0xa8(%r14),%r14
    8fba:	4d 85 f6             	test   %r14,%r14
    8fbd:	75 e7                	jne    8fa6 <main+0xd06>
    8fbf:	4c 8b 2d f2 5a 24 00 	mov    0x245af2(%rip),%r13        # 24eab8 <dnsmasq_daemon>
    8fc6:	4d 8b b5 78 02 00 00 	mov    0x278(%r13),%r14
    8fcd:	4d 85 f6             	test   %r14,%r14
    8fd0:	74 1d                	je     8fef <main+0xd4f>
    8fd2:	4c 89 f6             	mov    %r14,%rsi
    8fd5:	bf 0a 00 00 00       	mov    $0xa,%edi
    8fda:	e8 c1 cb 02 00       	callq  35ba0 <log_relay>
    8fdf:	4d 8b 76 38          	mov    0x38(%r14),%r14
    8fe3:	4d 85 f6             	test   %r14,%r14
    8fe6:	75 ea                	jne    8fd2 <main+0xd32>
    8fe8:	4c 8b 2d c9 5a 24 00 	mov    0x245ac9(%rip),%r13        # 24eab8 <dnsmasq_daemon>
    8fef:	49 83 bd 90 02 00 00 	cmpq   $0x0,0x290(%r13)
    8ff6:	00 
    8ff7:	74 0f                	je     9008 <main+0xd68>
    8ff9:	48 89 df             	mov    %rbx,%rdi
    8ffc:	e8 4f 66 02 00       	callq  2f650 <dhcp_construct_contexts>
    9001:	4c 8b 2d b0 5a 24 00 	mov    0x245ab0(%rip),%r13        # 24eab8 <dnsmasq_daemon>
    9008:	41 f6 45 04 20       	testb  $0x20,0x4(%r13)
    900d:	74 13                	je     9022 <main+0xd82>
    900f:	48 8d 35 4a 92 03 00 	lea    0x3924a(%rip),%rsi        # 42260 <meta+0xb80>
    9016:	bf 1e 00 00 00       	mov    $0x1e,%edi
    901b:	31 c0                	xor    %eax,%eax
    901d:	e8 be 48 02 00       	callq  2d8e0 <my_syslog>
    9022:	83 3c 24 00          	cmpl   $0x0,(%rsp)
    9026:	74 18                	je     9040 <main+0xda0>
    9028:	48 8b 54 24 18       	mov    0x18(%rsp),%rdx
    902d:	48 8d 35 54 92 03 00 	lea    0x39254(%rip),%rsi        # 42288 <meta+0xba8>
    9034:	bf 1e 00 00 00       	mov    $0x1e,%edi
    9039:	31 c0                	xor    %eax,%eax
    903b:	e8 a0 48 02 00       	callq  2d8e0 <my_syslog>
    9040:	4c 8b 2d 71 5a 24 00 	mov    0x245a71(%rip),%r13        # 24eab8 <dnsmasq_daemon>
    9047:	49 83 bd 00 02 00 00 	cmpq   $0x0,0x200(%r13)
    904e:	00 
    904f:	0f 84 fe 09 00 00    	je     9a53 <main+0x17b3>
    9055:	48 89 df             	mov    %rbx,%rdi
    9058:	e8 f3 ab 01 00       	callq  23c50 <lease_find_interfaces>
    905d:	4c 8b 2d 54 5a 24 00 	mov    0x245a54(%rip),%r13        # 24eab8 <dnsmasq_daemon>
    9064:	41 f6 45 05 01       	testb  $0x1,0x5(%r13)
    9069:	0f 84 03 01 00 00    	je     9172 <main+0xed2>
    906f:	41 f7 45 00 00 00 00 	testl  $0x4000000,0x0(%r13)
    9076:	04 
    9077:	49 8b 8d 08 03 00 00 	mov    0x308(%r13),%rcx
    907e:	48 8d 05 60 53 03 00 	lea    0x35360(%rip),%rax        # 3e3e5 <_IO_stdin_used+0xa85>
    9085:	4c 8d 05 6b 93 03 00 	lea    0x3936b(%rip),%r8        # 423f7 <meta+0xd17>
    908c:	48 8d 15 70 93 03 00 	lea    0x39370(%rip),%rdx        # 42403 <meta+0xd23>
    9093:	4c 0f 44 c0          	cmove  %rax,%r8
    9097:	48 85 c9             	test   %rcx,%rcx
    909a:	75 0a                	jne    90a6 <main+0xe06>
    909c:	48 8d 15 69 93 03 00 	lea    0x39369(%rip),%rdx        # 4240c <meta+0xd2c>
    90a3:	48 89 c1             	mov    %rax,%rcx
    90a6:	48 8d 35 bd 93 03 00 	lea    0x393bd(%rip),%rsi        # 4246a <meta+0xd8a>
    90ad:	31 c0                	xor    %eax,%eax
    90af:	bf 0e 00 00 00       	mov    $0xe,%edi
    90b4:	e8 27 48 02 00       	callq  2d8e0 <my_syslog>
    90b9:	45 85 e4             	test   %r12d,%r12d
    90bc:	0f 85 81 0b 00 00    	jne    9c43 <main+0x19a3>
    90c2:	4c 8b 2d ef 59 24 00 	mov    0x2459ef(%rip),%r13        # 24eab8 <dnsmasq_daemon>
    90c9:	4d 8b a5 10 03 00 00 	mov    0x310(%r13),%r12
    90d0:	4d 85 e4             	test   %r12,%r12
    90d3:	74 3a                	je     910f <main+0xe6f>
    90d5:	4c 8d 2d dc 91 03 00 	lea    0x391dc(%rip),%r13        # 422b8 <meta+0xbd8>
    90dc:	eb 0a                	jmp    90e8 <main+0xe48>
    90de:	4d 8b 64 24 18       	mov    0x18(%r12),%r12
    90e3:	4d 85 e4             	test   %r12,%r12
    90e6:	74 20                	je     9108 <main+0xe68>
    90e8:	45 8b 54 24 10       	mov    0x10(%r12),%r10d
    90ed:	45 85 d2             	test   %r10d,%r10d
    90f0:	74 ec                	je     90de <main+0xe3e>
    90f2:	49 8b 54 24 08       	mov    0x8(%r12),%rdx
    90f7:	4c 89 ee             	mov    %r13,%rsi
    90fa:	bf 0c 00 00 00       	mov    $0xc,%edi
    90ff:	31 c0                	xor    %eax,%eax
    9101:	e8 da 47 02 00       	callq  2d8e0 <my_syslog>
    9106:	eb d6                	jmp    90de <main+0xe3e>
    9108:	4c 8b 2d a9 59 24 00 	mov    0x2459a9(%rip),%r13        # 24eab8 <dnsmasq_daemon>
    910f:	48 89 ea             	mov    %rbp,%rdx
    9112:	48 83 ea 1e          	sub    $0x1e,%rdx
    9116:	0f 88 2a 0d 00 00    	js     9e46 <main+0x1ba6>
    911c:	48 83 fa 63          	cmp    $0x63,%rdx
    9120:	0f 8e 43 0b 00 00    	jle    9c69 <main+0x19c9>
    9126:	48 8d 55 ce          	lea    -0x32(%rbp),%rdx
    912a:	41 8b 85 ec 02 00 00 	mov    0x2ec(%r13),%eax
    9131:	85 c0                	test   %eax,%eax
    9133:	74 17                	je     914c <main+0xeac>
    9135:	41 8b 8d f0 02 00 00 	mov    0x2f0(%r13),%ecx
    913c:	29 c1                	sub    %eax,%ecx
    913e:	89 c8                	mov    %ecx,%eax
    9140:	83 c0 01             	add    $0x1,%eax
    9143:	48 98                	cltq   
    9145:	48 39 c2             	cmp    %rax,%rdx
    9148:	48 0f 4f d0          	cmovg  %rax,%rdx
    914c:	49 63 85 dc 02 00 00 	movslq 0x2dc(%r13),%rax
    9153:	48 39 d0             	cmp    %rdx,%rax
    9156:	7e 1a                	jle    9172 <main+0xed2>
    9158:	48 8d 35 81 91 03 00 	lea    0x39181(%rip),%rsi        # 422e0 <meta+0xc00>
    915f:	41 89 95 dc 02 00 00 	mov    %edx,0x2dc(%r13)
    9166:	bf 0c 00 00 00       	mov    $0xc,%edi
    916b:	31 c0                	xor    %eax,%eax
    916d:	e8 6e 47 02 00       	callq  2d8e0 <my_syslog>
    9172:	83 7c 24 50 ff       	cmpl   $0xffffffff,0x50(%rsp)
    9177:	74 15                	je     918e <main+0xeee>
    9179:	8b 7c 24 50          	mov    0x50(%rsp),%edi
    917d:	e8 fe cf ff ff       	callq  6180 <close@plt>
    9182:	48 63 f8             	movslq %eax,%rdi
    9185:	e8 06 94 00 00       	callq  12590 <retry_send>
    918a:	85 c0                	test   %eax,%eax
    918c:	75 eb                	jne    9179 <main+0xed9>
    918e:	48 8b 05 23 59 24 00 	mov    0x245923(%rip),%rax        # 24eab8 <dnsmasq_daemon>
    9195:	83 b8 9c 01 00 00 00 	cmpl   $0x0,0x19c(%rax)
    919c:	74 05                	je     91a3 <main+0xf03>
    919e:	e8 7d 6c 01 00       	callq  1fe20 <check_servers>
    91a3:	e8 d8 cd ff ff       	callq  5f80 <getpid@plt>
    91a8:	48 89 da             	mov    %rbx,%rdx
    91ab:	31 f6                	xor    %esi,%esi
    91ad:	bf 01 00 00 00       	mov    $0x1,%edi
    91b2:	89 05 bc 57 24 00    	mov    %eax,0x2457bc(%rip)        # 24e974 <pid>
    91b8:	4c 8d 6c 24 54       	lea    0x54(%rsp),%r13
    91bd:	4c 8d 35 40 93 03 00 	lea    0x39340(%rip),%r14        # 42504 <meta+0xe24>
    91c4:	e8 17 80 01 00       	callq  211e0 <poll_resolv>
    91c9:	48 8d 44 24 38       	lea    0x38(%rsp),%rax
    91ce:	41 83 cc ff          	or     $0xffffffff,%r12d
    91d2:	48 89 04 24          	mov    %rax,(%rsp)
    91d6:	66 2e 0f 1f 84 00 00 	nopw   %cs:0x0(%rax,%rax,1)
    91dd:	00 00 00 
    91e0:	e8 2b 2b 03 00       	callq  3bd10 <poll_reset>
    91e5:	48 89 df             	mov    %rbx,%rdi
    91e8:	44 89 e5             	mov    %r12d,%ebp
    91eb:	e8 40 75 01 00       	callq  20730 <set_dns_listeners>
    91f0:	85 c0                	test   %eax,%eax
    91f2:	74 06                	je     91fa <main+0xf5a>
    91f4:	69 e8 e8 03 00 00    	imul   $0x3e8,%eax,%ebp
    91fa:	48 8b 05 b7 58 24 00 	mov    0x2458b7(%rip),%rax        # 24eab8 <dnsmasq_daemon>
    9201:	48 83 b8 c0 06 00 00 	cmpq   $0x0,0x6c0(%rax)
    9208:	00 
    9209:	0f 84 09 03 00 00    	je     9518 <main+0x1278>
    920f:	bd fa 00 00 00       	mov    $0xfa,%ebp
    9214:	48 83 b8 00 02 00 00 	cmpq   $0x0,0x200(%rax)
    921b:	00 
    921c:	0f 84 86 02 00 00    	je     94a8 <main+0x1208>
    9222:	8b b8 38 06 00 00    	mov    0x638(%rax),%edi
    9228:	be 01 00 00 00       	mov    $0x1,%esi
    922d:	e8 4e 2b 03 00       	callq  3bd80 <poll_listen>
    9232:	48 8b 05 7f 58 24 00 	mov    0x24587f(%rip),%rax        # 24eab8 <dnsmasq_daemon>
    9239:	8b b8 40 06 00 00    	mov    0x640(%rax),%edi
    923f:	83 ff ff             	cmp    $0xffffffff,%edi
    9242:	74 11                	je     9255 <main+0xfb5>
    9244:	be 01 00 00 00       	mov    $0x1,%esi
    9249:	e8 32 2b 03 00       	callq  3bd80 <poll_listen>
    924e:	48 8b 05 63 58 24 00 	mov    0x245863(%rip),%rax        # 24eab8 <dnsmasq_daemon>
    9255:	44 8b 88 94 02 00 00 	mov    0x294(%rax),%r9d
    925c:	45 85 c9             	test   %r9d,%r9d
    925f:	75 0a                	jne    926b <main+0xfcb>
    9261:	48 83 b8 78 02 00 00 	cmpq   $0x0,0x278(%rax)
    9268:	00 
    9269:	74 17                	je     9282 <main+0xfe2>
    926b:	8b b8 b0 06 00 00    	mov    0x6b0(%rax),%edi
    9271:	be 01 00 00 00       	mov    $0x1,%esi
    9276:	e8 05 2b 03 00       	callq  3bd80 <poll_listen>
    927b:	48 8b 05 36 58 24 00 	mov    0x245836(%rip),%rax        # 24eab8 <dnsmasq_daemon>
    9282:	44 8b 80 90 02 00 00 	mov    0x290(%rax),%r8d
    9289:	45 85 c0             	test   %r8d,%r8d
    928c:	0f 85 66 02 00 00    	jne    94f8 <main+0x1258>
    9292:	8b b8 44 06 00 00    	mov    0x644(%rax),%edi
    9298:	83 ff ff             	cmp    $0xffffffff,%edi
    929b:	74 11                	je     92ae <main+0x100e>
    929d:	be 01 00 00 00       	mov    $0x1,%esi
    92a2:	e8 d9 2a 03 00       	callq  3bd80 <poll_listen>
    92a7:	48 8b 05 0a 58 24 00 	mov    0x24580a(%rip),%rax        # 24eab8 <dnsmasq_daemon>
    92ae:	8b b8 48 06 00 00    	mov    0x648(%rax),%edi
    92b4:	be 01 00 00 00       	mov    $0x1,%esi
    92b9:	e8 c2 2a 03 00       	callq  3bd80 <poll_listen>
    92be:	be 01 00 00 00       	mov    $0x1,%esi
    92c3:	44 89 ff             	mov    %r15d,%edi
    92c6:	e8 b5 2a 03 00       	callq  3bd80 <poll_listen>
    92cb:	eb 0f                	jmp    92dc <main+0x103c>
    92cd:	0f 1f 00             	nopl   (%rax)
    92d0:	48 89 df             	mov    %rbx,%rdi
    92d3:	e8 38 bf 01 00       	callq  25210 <do_script_run>
    92d8:	85 c0                	test   %eax,%eax
    92da:	74 09                	je     92e5 <main+0x1045>
    92dc:	e8 cf 2a 02 00       	callq  2bdb0 <helper_buf_empty>
    92e1:	85 c0                	test   %eax,%eax
    92e3:	75 eb                	jne    92d0 <main+0x1030>
    92e5:	48 8b 05 cc 57 24 00 	mov    0x2457cc(%rip),%rax        # 24eab8 <dnsmasq_daemon>
    92ec:	f6 40 06 20          	testb  $0x20,0x6(%rax)
    92f0:	74 17                	je     9309 <main+0x1069>
    92f2:	e9 e9 01 00 00       	jmpq   94e0 <main+0x1240>
    92f7:	66 0f 1f 84 00 00 00 	nopw   0x0(%rax,%rax,1)
    92fe:	00 00 
    9300:	e8 0b 45 03 00       	callq  3d810 <do_arp_script_run>
    9305:	85 c0                	test   %eax,%eax
    9307:	74 20                	je     9329 <main+0x1089>
    9309:	e8 a2 2a 02 00       	callq  2bdb0 <helper_buf_empty>
    930e:	85 c0                	test   %eax,%eax
    9310:	75 ee                	jne    9300 <main+0x1060>
    9312:	e8 99 2a 02 00       	callq  2bdb0 <helper_buf_empty>
    9317:	85 c0                	test   %eax,%eax
    9319:	74 17                	je     9332 <main+0x1092>
    931b:	0f 1f 44 00 00       	nopl   0x0(%rax,%rax,1)
    9320:	e8 ab 42 02 00       	callq  2d5d0 <do_tftp_script_run>
    9325:	85 c0                	test   %eax,%eax
    9327:	74 09                	je     9332 <main+0x1092>
    9329:	e8 82 2a 02 00       	callq  2bdb0 <helper_buf_empty>
    932e:	85 c0                	test   %eax,%eax
    9330:	75 ee                	jne    9320 <main+0x1080>
    9332:	e8 79 2a 02 00       	callq  2bdb0 <helper_buf_empty>
    9337:	85 c0                	test   %eax,%eax
    9339:	0f 84 81 01 00 00    	je     94c0 <main+0x1220>
    933f:	e8 7c 4c 02 00       	callq  2dfc0 <set_log_writer>
    9344:	89 ef                	mov    %ebp,%edi
    9346:	e8 d5 29 03 00       	callq  3bd20 <do_poll>
    934b:	85 c0                	test   %eax,%eax
    934d:	0f 88 8d fe ff ff    	js     91e0 <main+0xf40>
    9353:	e8 68 8a 00 00       	callq  11dc0 <dnsmasq_time>
    9358:	31 ff                	xor    %edi,%edi
    935a:	48 89 c3             	mov    %rax,%rbx
    935d:	e8 9e 4c 02 00       	callq  2e000 <check_log_writer>
    9362:	bf 01 00 00 00       	mov    $0x1,%edi
    9367:	e8 14 55 01 00       	callq  1e880 <enumerate_interfaces>
    936c:	e8 1f 5f 01 00       	callq  1f290 <is_dad_listeners>
    9371:	85 c0                	test   %eax,%eax
    9373:	0f 85 47 05 00 00    	jne    98c0 <main+0x1620>
    9379:	48 8b 05 38 57 24 00 	mov    0x245738(%rip),%rax        # 24eab8 <dnsmasq_daemon>
    9380:	be 01 00 00 00       	mov    $0x1,%esi
    9385:	8b b8 48 06 00 00    	mov    0x648(%rax),%edi
    938b:	e8 b0 29 03 00       	callq  3bd40 <poll_check>
    9390:	85 c0                	test   %eax,%eax
    9392:	0f 85 18 05 00 00    	jne    98b0 <main+0x1610>
    9398:	48 8b 05 19 57 24 00 	mov    0x245719(%rip),%rax        # 24eab8 <dnsmasq_daemon>
    939f:	8b b8 44 06 00 00    	mov    0x644(%rax),%edi
    93a5:	83 ff ff             	cmp    $0xffffffff,%edi
    93a8:	74 12                	je     93bc <main+0x111c>
    93aa:	be 01 00 00 00       	mov    $0x1,%esi
    93af:	e8 8c 29 03 00       	callq  3bd40 <poll_check>
    93b4:	85 c0                	test   %eax,%eax
    93b6:	0f 85 74 05 00 00    	jne    9930 <main+0x1690>
    93bc:	be 01 00 00 00       	mov    $0x1,%esi
    93c1:	44 89 ff             	mov    %r15d,%edi
    93c4:	e8 77 29 03 00       	callq  3bd40 <poll_check>
    93c9:	85 c0                	test   %eax,%eax
    93cb:	0f 85 97 01 00 00    	jne    9568 <main+0x12c8>
    93d1:	48 89 df             	mov    %rbx,%rdi
    93d4:	e8 27 75 01 00       	callq  20900 <check_dns_listeners>
    93d9:	48 89 df             	mov    %rbx,%rdi
    93dc:	e8 ff 3d 02 00       	callq  2d1e0 <check_tftp_listeners>
    93e1:	48 8b 05 d0 56 24 00 	mov    0x2456d0(%rip),%rax        # 24eab8 <dnsmasq_daemon>
    93e8:	48 83 b8 00 02 00 00 	cmpq   $0x0,0x200(%rax)
    93ef:	00 
    93f0:	0f 84 5a 01 00 00    	je     9550 <main+0x12b0>
    93f6:	8b b8 38 06 00 00    	mov    0x638(%rax),%edi
    93fc:	be 01 00 00 00       	mov    $0x1,%esi
    9401:	e8 3a 29 03 00       	callq  3bd40 <poll_check>
    9406:	85 c0                	test   %eax,%eax
    9408:	0f 85 fa 04 00 00    	jne    9908 <main+0x1668>
    940e:	48 8b 05 a3 56 24 00 	mov    0x2456a3(%rip),%rax        # 24eab8 <dnsmasq_daemon>
    9415:	8b b8 40 06 00 00    	mov    0x640(%rax),%edi
    941b:	83 ff ff             	cmp    $0xffffffff,%edi
    941e:	74 19                	je     9439 <main+0x1199>
    9420:	be 01 00 00 00       	mov    $0x1,%esi
    9425:	e8 16 29 03 00       	callq  3bd40 <poll_check>
    942a:	85 c0                	test   %eax,%eax
    942c:	0f 85 46 05 00 00    	jne    9978 <main+0x16d8>
    9432:	48 8b 05 7f 56 24 00 	mov    0x24567f(%rip),%rax        # 24eab8 <dnsmasq_daemon>
    9439:	8b 88 94 02 00 00    	mov    0x294(%rax),%ecx
    943f:	85 c9                	test   %ecx,%ecx
    9441:	75 0a                	jne    944d <main+0x11ad>
    9443:	48 83 b8 78 02 00 00 	cmpq   $0x0,0x278(%rax)
    944a:	00 
    944b:	74 1f                	je     946c <main+0x11cc>
    944d:	8b b8 b0 06 00 00    	mov    0x6b0(%rax),%edi
    9453:	be 01 00 00 00       	mov    $0x1,%esi
    9458:	e8 e3 28 03 00       	callq  3bd40 <poll_check>
    945d:	85 c0                	test   %eax,%eax
    945f:	0f 85 bb 04 00 00    	jne    9920 <main+0x1680>
    9465:	48 8b 05 4c 56 24 00 	mov    0x24564c(%rip),%rax        # 24eab8 <dnsmasq_daemon>
    946c:	8b 90 90 02 00 00    	mov    0x290(%rax),%edx
    9472:	85 d2                	test   %edx,%edx
    9474:	0f 85 66 04 00 00    	jne    98e0 <main+0x1640>
    947a:	8b b8 3c 06 00 00    	mov    0x63c(%rax),%edi
    9480:	83 ff ff             	cmp    $0xffffffff,%edi
    9483:	0f 84 57 fd ff ff    	je     91e0 <main+0xf40>
    9489:	be 04 00 00 00       	mov    $0x4,%esi
    948e:	e8 ad 28 03 00       	callq  3bd40 <poll_check>
    9493:	85 c0                	test   %eax,%eax
    9495:	0f 84 45 fd ff ff    	je     91e0 <main+0xf40>
    949b:	e8 20 29 02 00       	callq  2bdc0 <helper_write>
    94a0:	e9 3b fd ff ff       	jmpq   91e0 <main+0xf40>
    94a5:	0f 1f 00             	nopl   (%rax)
    94a8:	48 83 b8 70 02 00 00 	cmpq   $0x0,0x270(%rax)
    94af:	00 
    94b0:	0f 85 6c fd ff ff    	jne    9222 <main+0xf82>
    94b6:	e9 9a fd ff ff       	jmpq   9255 <main+0xfb5>
    94bb:	0f 1f 44 00 00       	nopl   0x0(%rax,%rax,1)
    94c0:	48 8b 05 f1 55 24 00 	mov    0x2455f1(%rip),%rax        # 24eab8 <dnsmasq_daemon>
    94c7:	be 04 00 00 00       	mov    $0x4,%esi
    94cc:	8b b8 3c 06 00 00    	mov    0x63c(%rax),%edi
    94d2:	e8 a9 28 03 00       	callq  3bd80 <poll_listen>
    94d7:	e9 63 fe ff ff       	jmpq   933f <main+0x109f>
    94dc:	0f 1f 40 00          	nopl   0x0(%rax)
    94e0:	48 89 d9             	mov    %rbx,%rcx
    94e3:	31 d2                	xor    %edx,%edx
    94e5:	31 f6                	xor    %esi,%esi
    94e7:	31 ff                	xor    %edi,%edi
    94e9:	e8 82 40 03 00       	callq  3d570 <find_mac>
    94ee:	e9 16 fe ff ff       	jmpq   9309 <main+0x1069>
    94f3:	0f 1f 44 00 00       	nopl   0x0(%rax,%rax,1)
    94f8:	8b b8 b4 06 00 00    	mov    0x6b4(%rax),%edi
    94fe:	be 01 00 00 00       	mov    $0x1,%esi
    9503:	e8 78 28 03 00       	callq  3bd80 <poll_listen>
    9508:	48 8b 05 a9 55 24 00 	mov    0x2455a9(%rip),%rax        # 24eab8 <dnsmasq_daemon>
    950f:	e9 7e fd ff ff       	jmpq   9292 <main+0xff2>
    9514:	0f 1f 40 00          	nopl   0x0(%rax)
    9518:	f7 00 00 00 08 00    	testl  $0x80000,(%rax)
    951e:	74 0e                	je     952e <main+0x128e>
    9520:	48 83 b8 b8 06 00 00 	cmpq   $0x0,0x6b8(%rax)
    9527:	00 
    9528:	0f 84 e1 fc ff ff    	je     920f <main+0xf6f>
    952e:	e8 5d 5d 01 00       	callq  1f290 <is_dad_listeners>
    9533:	85 c0                	test   %eax,%eax
    9535:	48 8b 05 7c 55 24 00 	mov    0x24557c(%rip),%rax        # 24eab8 <dnsmasq_daemon>
    953c:	0f 84 d2 fc ff ff    	je     9214 <main+0xf74>
    9542:	bd e8 03 00 00       	mov    $0x3e8,%ebp
    9547:	e9 c8 fc ff ff       	jmpq   9214 <main+0xf74>
    954c:	0f 1f 40 00          	nopl   0x0(%rax)
    9550:	48 83 b8 70 02 00 00 	cmpq   $0x0,0x270(%rax)
    9557:	00 
    9558:	0f 85 98 fe ff ff    	jne    93f6 <main+0x1156>
    955e:	e9 d6 fe ff ff       	jmpq   9439 <main+0x1199>
    9563:	0f 1f 44 00 00       	nopl   0x0(%rax,%rax,1)
    9568:	48 8b 14 24          	mov    (%rsp),%rdx
    956c:	4c 89 ee             	mov    %r13,%rsi
    956f:	44 89 ff             	mov    %r15d,%edi
    9572:	e8 19 79 01 00       	callq  20e90 <read_event>
    9577:	85 c0                	test   %eax,%eax
    9579:	0f 84 52 fe ff ff    	je     93d1 <main+0x1131>
    957f:	83 7c 24 54 19       	cmpl   $0x19,0x54(%rsp)
    9584:	0f 87 47 fe ff ff    	ja     93d1 <main+0x1131>
    958a:	8b 44 24 54          	mov    0x54(%rsp),%eax
    958e:	49 63 04 86          	movslq (%r14,%rax,4),%rax
    9592:	4c 01 f0             	add    %r14,%rax
    9595:	ff e0                	jmpq   *%rax
    9597:	48 8b 0d 1a 55 24 00 	mov    0x24551a(%rip),%rcx        # 24eab8 <dnsmasq_daemon>
    959e:	48 8d 91 c8 03 00 00 	lea    0x3c8(%rcx),%rdx
    95a5:	48 81 c1 18 04 00 00 	add    $0x418,%rcx
    95ac:	0f 1f 40 00          	nopl   0x0(%rax)
    95b0:	3b 02                	cmp    (%rdx),%eax
    95b2:	75 06                	jne    95ba <main+0x131a>
    95b4:	c7 02 00 00 00 00    	movl   $0x0,(%rdx)
    95ba:	48 83 c2 04          	add    $0x4,%rdx
    95be:	48 39 d1             	cmp    %rdx,%rcx
    95c1:	75 ed                	jne    95b0 <main+0x1310>
    95c3:	31 f6                	xor    %esi,%esi
    95c5:	ba 01 00 00 00       	mov    $0x1,%edx
    95ca:	44 89 e7             	mov    %r12d,%edi
    95cd:	e8 fe ce ff ff       	callq  64d0 <waitpid@plt>
    95d2:	85 c0                	test   %eax,%eax
    95d4:	0f 84 f7 fd ff ff    	je     93d1 <main+0x1131>
    95da:	83 f8 ff             	cmp    $0xffffffff,%eax
    95dd:	75 b8                	jne    9597 <main+0x12f7>
    95df:	e8 9c c8 ff ff       	callq  5e80 <__errno_location@plt>
    95e4:	83 38 04             	cmpl   $0x4,(%rax)
    95e7:	74 da                	je     95c3 <main+0x1323>
    95e9:	e9 e3 fd ff ff       	jmpq   93d1 <main+0x1131>
    95ee:	48 8b 05 c3 54 24 00 	mov    0x2454c3(%rip),%rax        # 24eab8 <dnsmasq_daemon>
    95f5:	48 83 80 30 03 00 00 	addq   $0x1,0x330(%rax)
    95fc:	01 
    95fd:	48 89 df             	mov    %rbx,%rdi
    9600:	e8 1b 7b 01 00       	callq  21120 <clear_cache_and_reload>
    9605:	48 8b 05 ac 54 24 00 	mov    0x2454ac(%rip),%rax        # 24eab8 <dnsmasq_daemon>
    960c:	8b b0 9c 01 00 00    	mov    0x19c(%rax),%esi
    9612:	85 f6                	test   %esi,%esi
    9614:	74 23                	je     9639 <main+0x1399>
    9616:	48 8b 50 38          	mov    0x38(%rax),%rdx
    961a:	48 85 d2             	test   %rdx,%rdx
    961d:	74 09                	je     9628 <main+0x1388>
    961f:	f6 00 20             	testb  $0x20,(%rax)
    9622:	0f 85 de 06 00 00    	jne    9d06 <main+0x1a66>
    9628:	48 83 78 48 00       	cmpq   $0x0,0x48(%rax)
    962d:	74 0a                	je     9639 <main+0x1399>
    962f:	e8 cc 04 01 00       	callq  19b00 <read_servers_file>
    9634:	e8 e7 67 01 00       	callq  1fe20 <check_servers>
    9639:	e8 a2 bb 01 00       	callq  251e0 <rerun_scripts>
    963e:	e9 8e fd ff ff       	jmpq   93d1 <main+0x1131>
    9643:	4c 8b 2d 6e 54 24 00 	mov    0x24546e(%rip),%r13        # 24eab8 <dnsmasq_daemon>
    964a:	31 ed                	xor    %ebp,%ebp
    964c:	eb 0a                	jmp    9658 <main+0x13b8>
    964e:	66 90                	xchg   %ax,%ax
    9650:	83 c5 01             	add    $0x1,%ebp
    9653:	83 fd 14             	cmp    $0x14,%ebp
    9656:	74 28                	je     9680 <main+0x13e0>
    9658:	48 63 c5             	movslq %ebp,%rax
    965b:	41 8b bc 85 c8 03 00 	mov    0x3c8(%r13,%rax,4),%edi
    9662:	00 
    9663:	85 ff                	test   %edi,%edi
    9665:	74 e9                	je     9650 <main+0x13b0>
    9667:	be 0e 00 00 00       	mov    $0xe,%esi
    966c:	83 c5 01             	add    $0x1,%ebp
    966f:	e8 bc cc ff ff       	callq  6330 <kill@plt>
    9674:	83 fd 14             	cmp    $0x14,%ebp
    9677:	4c 8b 2d 3a 54 24 00 	mov    0x24543a(%rip),%r13        # 24eab8 <dnsmasq_daemon>
    967e:	75 d8                	jne    9658 <main+0x13b8>
    9680:	41 8b bd 3c 06 00 00 	mov    0x63c(%r13),%edi
    9687:	83 ff ff             	cmp    $0xffffffff,%edi
    968a:	74 5b                	je     96e7 <main+0x1447>
    968c:	31 c0                	xor    %eax,%eax
    968e:	be 03 00 00 00       	mov    $0x3,%esi
    9693:	e8 b8 c8 ff ff       	callq  5f50 <fcntl@plt>
    9698:	83 f8 ff             	cmp    $0xffffffff,%eax
    969b:	0f 85 4a 05 00 00    	jne    9beb <main+0x194b>
    96a1:	0f 1f 80 00 00 00 00 	nopl   0x0(%rax)
    96a8:	e8 13 27 02 00       	callq  2bdc0 <helper_write>
    96ad:	e8 fe 26 02 00       	callq  2bdb0 <helper_buf_empty>
    96b2:	85 c0                	test   %eax,%eax
    96b4:	74 f2                	je     96a8 <main+0x1408>
    96b6:	48 89 df             	mov    %rbx,%rdi
    96b9:	e8 52 bb 01 00       	callq  25210 <do_script_run>
    96be:	85 c0                	test   %eax,%eax
    96c0:	75 e6                	jne    96a8 <main+0x1408>
    96c2:	48 8b 05 ef 53 24 00 	mov    0x2453ef(%rip),%rax        # 24eab8 <dnsmasq_daemon>
    96c9:	8b b8 3c 06 00 00    	mov    0x63c(%rax),%edi
    96cf:	e8 ac ca ff ff       	callq  6180 <close@plt>
    96d4:	48 63 f8             	movslq %eax,%rdi
    96d7:	e8 b4 8e 00 00       	callq  12590 <retry_send>
    96dc:	85 c0                	test   %eax,%eax
    96de:	75 e2                	jne    96c2 <main+0x1422>
    96e0:	4c 8b 2d d1 53 24 00 	mov    0x2453d1(%rip),%r13        # 24eab8 <dnsmasq_daemon>
    96e7:	49 8b bd 80 06 00 00 	mov    0x680(%r13),%rdi
    96ee:	48 85 ff             	test   %rdi,%rdi
    96f1:	74 0c                	je     96ff <main+0x145f>
    96f3:	e8 b8 c8 ff ff       	callq  5fb0 <fclose@plt>
    96f8:	4c 8b 2d b9 53 24 00 	mov    0x2453b9(%rip),%r13        # 24eab8 <dnsmasq_daemon>
    96ff:	49 8b bd 20 01 00 00 	mov    0x120(%r13),%rdi
    9706:	48 85 ff             	test   %rdi,%rdi
    9709:	74 05                	je     9710 <main+0x1470>
    970b:	e8 80 c7 ff ff       	callq  5e90 <unlink@plt>
    9710:	48 8d 35 92 8d 03 00 	lea    0x38d92(%rip),%rsi        # 424a9 <meta+0xdc9>
    9717:	bf 06 00 00 00       	mov    $0x6,%edi
    971c:	31 c0                	xor    %eax,%eax
    971e:	e8 bd 41 02 00       	callq  2d8e0 <my_syslog>
    9723:	e8 28 49 02 00       	callq  2e050 <flush_log>
    9728:	31 ff                	xor    %edi,%edi
    972a:	e8 81 ce ff ff       	callq  65b0 <exit@plt>
    972f:	48 8b 54 24 38       	mov    0x38(%rsp),%rdx
    9734:	48 8d 05 aa 4c 03 00 	lea    0x34caa(%rip),%rax        # 3e3e5 <_IO_stdin_used+0xa85>
    973b:	48 8d 35 e5 a4 03 00 	lea    0x3a4e5(%rip),%rsi        # 43c27 <meta+0x2547>
    9742:	bf 17 00 00 00       	mov    $0x17,%edi
    9747:	48 85 d2             	test   %rdx,%rdx
    974a:	48 0f 44 d0          	cmove  %rax,%rdx
    974e:	31 c0                	xor    %eax,%eax
    9750:	e8 8b 41 02 00       	callq  2d8e0 <my_syslog>
    9755:	48 8b 7c 24 38       	mov    0x38(%rsp),%rdi
    975a:	e8 d1 c6 ff ff       	callq  5e30 <free@plt>
    975f:	e9 6d fc ff ff       	jmpq   93d1 <main+0x1131>
    9764:	48 8b 05 4d 53 24 00 	mov    0x24534d(%rip),%rax        # 24eab8 <dnsmasq_daemon>
    976b:	83 b8 9c 01 00 00 00 	cmpl   $0x0,0x19c(%rax)
    9772:	0f 84 59 fc ff ff    	je     93d1 <main+0x1131>
    9778:	48 89 df             	mov    %rbx,%rdi
    977b:	e8 f0 2d 00 00       	callq  c570 <dump_cache>
    9780:	e9 4c fc ff ff       	jmpq   93d1 <main+0x1131>
    9785:	48 8b 05 2c 53 24 00 	mov    0x24532c(%rip),%rax        # 24eab8 <dnsmasq_daemon>
    978c:	48 83 b8 00 02 00 00 	cmpq   $0x0,0x200(%rax)
    9793:	00 
    9794:	0f 85 f7 00 00 00    	jne    9891 <main+0x15f1>
    979a:	83 b8 94 02 00 00 00 	cmpl   $0x0,0x294(%rax)
    97a1:	0f 85 ea 00 00 00    	jne    9891 <main+0x15f1>
    97a7:	83 b8 90 02 00 00 00 	cmpl   $0x0,0x290(%rax)
    97ae:	0f 84 1d fc ff ff    	je     93d1 <main+0x1131>
    97b4:	48 89 df             	mov    %rbx,%rdi
    97b7:	e8 34 e0 02 00       	callq  377f0 <periodic_ra>
    97bc:	48 89 de             	mov    %rbx,%rsi
    97bf:	48 89 c7             	mov    %rax,%rdi
    97c2:	e8 d9 78 01 00       	callq  210a0 <send_alarm>
    97c7:	e9 05 fc ff ff       	jmpq   93d1 <main+0x1131>
    97cc:	8b 7c 24 58          	mov    0x58(%rsp),%edi
    97d0:	e8 2b ce ff ff       	callq  6600 <strerror@plt>
    97d5:	48 8b 15 dc 52 24 00 	mov    0x2452dc(%rip),%rdx        # 24eab8 <dnsmasq_daemon>
    97dc:	48 8d 35 ad 8c 03 00 	lea    0x38cad(%rip),%rsi        # 42490 <meta+0xdb0>
    97e3:	48 89 c1             	mov    %rax,%rcx
    97e6:	bf 03 00 00 00       	mov    $0x3,%edi
    97eb:	31 c0                	xor    %eax,%eax
    97ed:	48 8b 92 28 01 00 00 	mov    0x128(%rdx),%rdx
    97f4:	e8 e7 40 02 00       	callq  2d8e0 <my_syslog>
    97f9:	e9 d3 fb ff ff       	jmpq   93d1 <main+0x1131>
    97fe:	31 c0                	xor    %eax,%eax
    9800:	e8 2b 40 01 00       	callq  1d830 <resend_query>
    9805:	48 89 da             	mov    %rbx,%rdx
    9808:	be 01 00 00 00       	mov    $0x1,%esi
    980d:	31 ff                	xor    %edi,%edi
    980f:	e8 cc 79 01 00       	callq  211e0 <poll_resolv>
    9814:	e9 b8 fb ff ff       	jmpq   93d1 <main+0x1131>
    9819:	48 89 df             	mov    %rbx,%rdi
    981c:	e8 df 6c 01 00       	callq  20500 <newaddress>
    9821:	e9 ab fb ff ff       	jmpq   93d1 <main+0x1131>
    9826:	48 8b 74 24 38       	mov    0x38(%rsp),%rsi
    982b:	4c 89 ef             	mov    %r13,%rdi
    982e:	e8 dd 6d 01 00       	callq  20610 <fatal_event>
    9833:	e9 99 fb ff ff       	jmpq   93d1 <main+0x1131>
    9838:	8b 54 24 58          	mov    0x58(%rsp),%edx
    983c:	48 8d 35 fd 8a 03 00 	lea    0x38afd(%rip),%rsi        # 42340 <meta+0xc60>
    9843:	bf 04 00 00 00       	mov    $0x4,%edi
    9848:	31 c0                	xor    %eax,%eax
    984a:	e8 91 40 02 00       	callq  2d8e0 <my_syslog>
    984f:	e9 7d fb ff ff       	jmpq   93d1 <main+0x1131>
    9854:	48 8b 05 5d 52 24 00 	mov    0x24525d(%rip),%rax        # 24eab8 <dnsmasq_daemon>
    985b:	48 8b b8 88 01 00 00 	mov    0x188(%rax),%rdi
    9862:	48 85 ff             	test   %rdi,%rdi
    9865:	0f 84 66 fb ff ff    	je     93d1 <main+0x1131>
    986b:	e8 b0 3d 02 00       	callq  2d620 <log_reopen>
    9870:	e9 5c fb ff ff       	jmpq   93d1 <main+0x1131>
    9875:	8b 54 24 58          	mov    0x58(%rsp),%edx
    9879:	48 8d 35 98 8a 03 00 	lea    0x38a98(%rip),%rsi        # 42318 <meta+0xc38>
    9880:	bf 04 00 00 00       	mov    $0x4,%edi
    9885:	31 c0                	xor    %eax,%eax
    9887:	e8 54 40 02 00       	callq  2d8e0 <my_syslog>
    988c:	e9 40 fb ff ff       	jmpq   93d1 <main+0x1131>
    9891:	31 ff                	xor    %edi,%edi
    9893:	48 89 de             	mov    %rbx,%rsi
    9896:	e8 25 a6 01 00       	callq  23ec0 <lease_prune>
    989b:	48 89 df             	mov    %rbx,%rdi
    989e:	e8 bd 9c 01 00       	callq  23560 <lease_update_file>
    98a3:	e9 29 fb ff ff       	jmpq   93d1 <main+0x1131>
    98a8:	0f 1f 84 00 00 00 00 	nopl   0x0(%rax,%rax,1)
    98af:	00 
    98b0:	e8 ab 0f 02 00       	callq  2a860 <netlink_multicast>
    98b5:	e9 de fa ff ff       	jmpq   9398 <main+0x10f8>
    98ba:	66 0f 1f 44 00 00    	nopw   0x0(%rax,%rax,1)
    98c0:	31 ff                	xor    %edi,%edi
    98c2:	e8 b9 4f 01 00       	callq  1e880 <enumerate_interfaces>
    98c7:	31 ff                	xor    %edi,%edi
    98c9:	e8 32 57 01 00       	callq  1f000 <create_bound_listeners>
    98ce:	e8 2d 58 01 00       	callq  1f100 <warn_bound_listeners>
    98d3:	e9 a1 fa ff ff       	jmpq   9379 <main+0x10d9>
    98d8:	0f 1f 84 00 00 00 00 	nopl   0x0(%rax,%rax,1)
    98df:	00 
    98e0:	8b b8 b4 06 00 00    	mov    0x6b4(%rax),%edi
    98e6:	be 01 00 00 00       	mov    $0x1,%esi
    98eb:	e8 50 24 03 00       	callq  3bd40 <poll_check>
    98f0:	85 c0                	test   %eax,%eax
    98f2:	0f 85 92 00 00 00    	jne    998a <main+0x16ea>
    98f8:	48 8b 05 b9 51 24 00 	mov    0x2451b9(%rip),%rax        # 24eab8 <dnsmasq_daemon>
    98ff:	e9 76 fb ff ff       	jmpq   947a <main+0x11da>
    9904:	0f 1f 40 00          	nopl   0x0(%rax)
    9908:	31 f6                	xor    %esi,%esi
    990a:	48 89 df             	mov    %rbx,%rdi
    990d:	e8 ae 83 01 00       	callq  21cc0 <dhcp_packet>
    9912:	e9 f7 fa ff ff       	jmpq   940e <main+0x116e>
    9917:	66 0f 1f 84 00 00 00 	nopw   0x0(%rax,%rax,1)
    991e:	00 00 
    9920:	48 89 df             	mov    %rbx,%rdi
    9923:	e8 78 51 02 00       	callq  2eaa0 <dhcp6_packet>
    9928:	e9 38 fb ff ff       	jmpq   9465 <main+0x11c5>
    992d:	0f 1f 00             	nopl   (%rax)
    9930:	48 89 df             	mov    %rbx,%rdi
    9933:	e8 a8 20 03 00       	callq  3b9e0 <inotify_check>
    9938:	85 c0                	test   %eax,%eax
    993a:	0f 84 7c fa ff ff    	je     93bc <main+0x111c>
    9940:	48 8b 05 71 51 24 00 	mov    0x245171(%rip),%rax        # 24eab8 <dnsmasq_daemon>
    9947:	8b b8 9c 01 00 00    	mov    0x19c(%rax),%edi
    994d:	85 ff                	test   %edi,%edi
    994f:	0f 84 67 fa ff ff    	je     93bc <main+0x111c>
    9955:	f6 00 20             	testb  $0x20,(%rax)
    9958:	0f 85 5e fa ff ff    	jne    93bc <main+0x111c>
    995e:	48 89 da             	mov    %rbx,%rdx
    9961:	be 01 00 00 00       	mov    $0x1,%esi
    9966:	bf 01 00 00 00       	mov    $0x1,%edi
    996b:	e8 70 78 01 00       	callq  211e0 <poll_resolv>
    9970:	e9 47 fa ff ff       	jmpq   93bc <main+0x111c>
    9975:	0f 1f 00             	nopl   (%rax)
    9978:	be 01 00 00 00       	mov    $0x1,%esi
    997d:	48 89 df             	mov    %rbx,%rdi
    9980:	e8 3b 83 01 00       	callq  21cc0 <dhcp_packet>
    9985:	e9 a8 fa ff ff       	jmpq   9432 <main+0x1192>
    998a:	48 89 df             	mov    %rbx,%rdi
    998d:	e8 3e db 02 00       	callq  374d0 <icmp6_packet>
    9992:	e9 61 ff ff ff       	jmpq   98f8 <main+0x1658>
    9997:	45 31 f6             	xor    %r14d,%r14d
    999a:	48 c7 44 24 10 00 00 	movq   $0x0,0x10(%rsp)
    99a1:	00 00 
    99a3:	e9 88 ee ff ff       	jmpq   8830 <main+0x590>
    99a8:	48 8d 3d 21 86 03 00 	lea    0x38621(%rip),%rdi        # 41fd0 <meta+0x8f0>
    99af:	ba 01 00 00 00       	mov    $0x1,%edx
    99b4:	31 f6                	xor    %esi,%esi
    99b6:	e8 05 47 02 00       	callq  2e0c0 <die>
    99bb:	e9 a0 ea ff ff       	jmpq   8460 <main+0x1c0>
    99c0:	49 83 bd 08 02 00 00 	cmpq   $0x0,0x208(%r13)
    99c7:	00 
    99c8:	0f 85 74 ed ff ff    	jne    8742 <main+0x4a2>
    99ce:	e9 1b f0 ff ff       	jmpq   89ee <main+0x74e>
    99d3:	48 8d 3d 76 85 03 00 	lea    0x38576(%rip),%rdi        # 41f50 <meta+0x870>
    99da:	ba 01 00 00 00       	mov    $0x1,%edx
    99df:	31 f6                	xor    %esi,%esi
    99e1:	e8 da 46 02 00       	callq  2e0c0 <die>
    99e6:	4c 8b 2d cb 50 24 00 	mov    0x2450cb(%rip),%r13        # 24eab8 <dnsmasq_daemon>
    99ed:	41 8b 45 04          	mov    0x4(%r13),%eax
    99f1:	e9 38 ea ff ff       	jmpq   842e <main+0x18e>
    99f6:	49 83 bd 00 02 00 00 	cmpq   $0x0,0x200(%r13)
    99fd:	00 
    99fe:	0f 84 82 04 00 00    	je     9e86 <main+0x1be6>
    9a04:	48 8d 05 6f 4b 03 00 	lea    0x34b6f(%rip),%rax        # 3e57a <_IO_stdin_used+0xc1a>
    9a0b:	49 89 85 b8 00 00 00 	mov    %rax,0xb8(%r13)
    9a12:	e9 da e9 ff ff       	jmpq   83f1 <main+0x151>
    9a17:	bf 2e 00 00 00       	mov    $0x2e,%edi
    9a1c:	e8 3f 81 00 00       	callq  11b60 <safe_malloc>
    9a21:	49 89 85 d8 06 00 00 	mov    %rax,0x6d8(%r13)
    9a28:	4c 8b 2d 89 50 24 00 	mov    0x245089(%rip),%r13        # 24eab8 <dnsmasq_daemon>
    9a2f:	e9 af e9 ff ff       	jmpq   83e3 <main+0x143>
    9a34:	48 8d 3d 4d 85 03 00 	lea    0x3854d(%rip),%rdi        # 41f88 <meta+0x8a8>
    9a3b:	ba 01 00 00 00       	mov    $0x1,%edx
    9a40:	31 f6                	xor    %esi,%esi
    9a42:	e8 79 46 02 00       	callq  2e0c0 <die>
    9a47:	4c 8b 2d 6a 50 24 00 	mov    0x24506a(%rip),%r13        # 24eab8 <dnsmasq_daemon>
    9a4e:	e9 e3 e9 ff ff       	jmpq   8436 <main+0x196>
    9a53:	41 83 bd 94 02 00 00 	cmpl   $0x0,0x294(%r13)
    9a5a:	00 
    9a5b:	0f 84 03 f6 ff ff    	je     9064 <main+0xdc4>
    9a61:	e9 ef f5 ff ff       	jmpq   9055 <main+0xdb5>
    9a66:	bf 08 00 00 00       	mov    $0x8,%edi
    9a6b:	e8 f0 80 00 00       	callq  11b60 <safe_malloc>
    9a70:	31 f6                	xor    %esi,%esi
    9a72:	49 89 c6             	mov    %rax,%r14
    9a75:	48 c7 00 00 00 00 00 	movq   $0x0,(%rax)
    9a7c:	48 89 c7             	mov    %rax,%rdi
    9a7f:	48 89 44 24 10       	mov    %rax,0x10(%rsp)
    9a84:	e8 d7 c8 ff ff       	callq  6360 <capget@plt>
    9a89:	41 8b 06             	mov    (%r14),%eax
    9a8c:	3d 30 03 98 19       	cmp    $0x19980330,%eax
    9a91:	0f 84 0a 02 00 00    	je     9ca1 <main+0x1a01>
    9a97:	3d 26 10 07 20       	cmp    $0x20071026,%eax
    9a9c:	0f 84 1d 04 00 00    	je     9ebf <main+0x1c1f>
    9aa2:	41 c7 06 22 05 08 20 	movl   $0x20080522,(%r14)
    9aa9:	b8 02 00 00 00       	mov    $0x2,%eax
    9aae:	4c 6b e8 0c          	imul   $0xc,%rax,%r13
    9ab2:	4c 89 ef             	mov    %r13,%rdi
    9ab5:	e8 a6 80 00 00       	callq  11b60 <safe_malloc>
    9aba:	49 89 c6             	mov    %rax,%r14
    9abd:	4c 89 e9             	mov    %r13,%rcx
    9ac0:	31 c0                	xor    %eax,%eax
    9ac2:	4c 89 f7             	mov    %r14,%rdi
    9ac5:	f3 aa                	rep stos %al,%es:(%rdi)
    9ac7:	e9 64 ed ff ff       	jmpq   8830 <main+0x590>
    9acc:	48 8d 3d 41 89 03 00 	lea    0x38941(%rip),%rdi        # 42414 <meta+0xd34>
    9ad3:	31 c0                	xor    %eax,%eax
    9ad5:	be 02 00 00 00       	mov    $0x2,%esi
    9ada:	e8 a1 c9 ff ff       	callq  6480 <open64@plt>
    9adf:	83 f8 ff             	cmp    $0xffffffff,%eax
    9ae2:	41 89 c5             	mov    %eax,%r13d
    9ae5:	0f 85 86 01 00 00    	jne    9c71 <main+0x19d1>
    9aeb:	4c 8b 2d c6 4f 24 00 	mov    0x244fc6(%rip),%r13        # 24eab8 <dnsmasq_daemon>
    9af2:	e9 9a ef ff ff       	jmpq   8a91 <main+0x7f1>
    9af7:	48 8d 35 0a 86 03 00 	lea    0x3860a(%rip),%rsi        # 42108 <meta+0xa28>
    9afe:	bf 06 00 00 00       	mov    $0x6,%edi
    9b03:	31 c0                	xor    %eax,%eax
    9b05:	e8 d6 3d 02 00       	callq  2d8e0 <my_syslog>
    9b0a:	e9 cf f2 ff ff       	jmpq   8dde <main+0xb3e>
    9b0f:	48 8d 15 a7 47 03 00 	lea    0x347a7(%rip),%rdx        # 3e2bd <_IO_stdin_used+0x95d>
    9b16:	48 8d 35 9b 85 03 00 	lea    0x3859b(%rip),%rsi        # 420b8 <meta+0x9d8>
    9b1d:	bf 06 00 00 00       	mov    $0x6,%edi
    9b22:	31 c0                	xor    %eax,%eax
    9b24:	e8 b7 3d 02 00       	callq  2d8e0 <my_syslog>
    9b29:	e9 c1 f2 ff ff       	jmpq   8def <main+0xb4f>
    9b2e:	45 31 c0             	xor    %r8d,%r8d
    9b31:	31 c9                	xor    %ecx,%ecx
    9b33:	31 d2                	xor    %edx,%edx
    9b35:	be 01 00 00 00       	mov    $0x1,%esi
    9b3a:	bf 04 00 00 00       	mov    $0x4,%edi
    9b3f:	31 c0                	xor    %eax,%eax
    9b41:	e8 ca c7 ff ff       	callq  6310 <prctl@plt>
    9b46:	4c 8b 2d 6b 4f 24 00 	mov    0x244f6b(%rip),%r13        # 24eab8 <dnsmasq_daemon>
    9b4d:	e9 16 f1 ff ff       	jmpq   8c68 <main+0x9c8>
    9b52:	e8 a9 55 01 00       	callq  1f100 <warn_bound_listeners>
    9b57:	e9 fe f2 ff ff       	jmpq   8e5a <main+0xbba>
    9b5c:	49 83 bd 08 02 00 00 	cmpq   $0x0,0x208(%r13)
    9b63:	00 
    9b64:	0f 85 40 ef ff ff    	jne    8aaa <main+0x80a>
    9b6a:	41 f7 45 04 00 01 20 	testl  $0x200100,0x4(%r13)
    9b71:	00 
    9b72:	0f 84 68 ef ff ff    	je     8ae0 <main+0x840>
    9b78:	e9 2d ef ff ff       	jmpq   8aaa <main+0x80a>
    9b7d:	48 8d 3d 7c 84 03 00 	lea    0x3847c(%rip),%rdi        # 42000 <meta+0x920>
    9b84:	ba 01 00 00 00       	mov    $0x1,%edx
    9b89:	31 f6                	xor    %esi,%esi
    9b8b:	e8 30 45 02 00       	callq  2e0c0 <die>
    9b90:	e9 0b ea ff ff       	jmpq   85a0 <main+0x300>
    9b95:	c7 04 24 00 00 00 00 	movl   $0x0,(%rsp)
    9b9c:	e9 0a eb ff ff       	jmpq   86ab <main+0x40b>
    9ba1:	4c 8b 2d 10 4f 24 00 	mov    0x244f10(%rip),%r13        # 24eab8 <dnsmasq_daemon>
    9ba8:	c7 44 24 28 00 00 00 	movl   $0x0,0x28(%rsp)
    9baf:	00 
    9bb0:	c7 44 24 24 00 00 00 	movl   $0x0,0x24(%rsp)
    9bb7:	00 
    9bb8:	4d 8b b5 d0 00 00 00 	mov    0xd0(%r13),%r14
    9bbf:	e9 ca eb ff ff       	jmpq   878e <main+0x4ee>
    9bc4:	44 89 ef             	mov    %r13d,%edi
    9bc7:	e8 b4 c5 ff ff       	callq  6180 <close@plt>
    9bcc:	48 63 f8             	movslq %eax,%rdi
    9bcf:	e8 bc 89 00 00       	callq  12590 <retry_send>
    9bd4:	85 c0                	test   %eax,%eax
    9bd6:	75 ec                	jne    9bc4 <main+0x1924>
    9bd8:	e8 a3 c2 ff ff       	callq  5e80 <__errno_location@plt>
    9bdd:	83 38 00             	cmpl   $0x0,(%rax)
    9be0:	0f 85 6b ed ff ff    	jne    8951 <main+0x6b1>
    9be6:	e9 84 ee ff ff       	jmpq   8a6f <main+0x7cf>
    9beb:	80 e4 f7             	and    $0xf7,%ah
    9bee:	be 04 00 00 00       	mov    $0x4,%esi
    9bf3:	89 c2                	mov    %eax,%edx
    9bf5:	48 8b 05 bc 4e 24 00 	mov    0x244ebc(%rip),%rax        # 24eab8 <dnsmasq_daemon>
    9bfc:	8b b8 3c 06 00 00    	mov    0x63c(%rax),%edi
    9c02:	31 c0                	xor    %eax,%eax
    9c04:	e8 47 c3 ff ff       	callq  5f50 <fcntl@plt>
    9c09:	e9 9a fa ff ff       	jmpq   96a8 <main+0x1408>
    9c0e:	48 8d 3d a2 48 03 00 	lea    0x348a2(%rip),%rdi        # 3e4b7 <_IO_stdin_used+0xb57>
    9c15:	e8 e6 c6 ff ff       	callq  6300 <getgrnam@plt>
    9c1a:	48 85 c0             	test   %rax,%rax
    9c1d:	48 89 44 24 08       	mov    %rax,0x8(%rsp)
    9c22:	0f 84 71 02 00 00    	je     9e99 <main+0x1bf9>
    9c28:	48 8b 44 24 08       	mov    0x8(%rsp),%rax
    9c2d:	48 8b 10             	mov    (%rax),%rdx
    9c30:	48 8b 05 81 4e 24 00 	mov    0x244e81(%rip),%rax        # 24eab8 <dnsmasq_daemon>
    9c37:	48 89 90 c8 00 00 00 	mov    %rdx,0xc8(%rax)
    9c3e:	e9 ca eb ff ff       	jmpq   880d <main+0x56d>
    9c43:	48 8b 05 6e 4e 24 00 	mov    0x244e6e(%rip),%rax        # 24eab8 <dnsmasq_daemon>
    9c4a:	48 8d 35 26 88 03 00 	lea    0x38826(%rip),%rsi        # 42477 <meta+0xd97>
    9c51:	bf 0c 00 00 00       	mov    $0xc,%edi
    9c56:	48 8b 90 08 03 00 00 	mov    0x308(%rax),%rdx
    9c5d:	31 c0                	xor    %eax,%eax
    9c5f:	e8 7c 3c 02 00       	callq  2d8e0 <my_syslog>
    9c64:	e9 59 f4 ff ff       	jmpq   90c2 <main+0xe22>
    9c69:	48 d1 fa             	sar    %rdx
    9c6c:	e9 b9 f4 ff ff       	jmpq   912a <main+0xe8a>
    9c71:	be 01 00 00 00       	mov    $0x1,%esi
    9c76:	89 c7                	mov    %eax,%edi
    9c78:	e8 d3 c3 ff ff       	callq  6050 <dup2@plt>
    9c7d:	44 89 ef             	mov    %r13d,%edi
    9c80:	be 02 00 00 00       	mov    $0x2,%esi
    9c85:	e8 c6 c3 ff ff       	callq  6050 <dup2@plt>
    9c8a:	44 89 ef             	mov    %r13d,%edi
    9c8d:	31 f6                	xor    %esi,%esi
    9c8f:	e8 bc c3 ff ff       	callq  6050 <dup2@plt>
    9c94:	44 89 ef             	mov    %r13d,%edi
    9c97:	e8 e4 c4 ff ff       	callq  6180 <close@plt>
    9c9c:	e9 4a fe ff ff       	jmpq   9aeb <main+0x184b>
    9ca1:	b8 01 00 00 00       	mov    $0x1,%eax
    9ca6:	e9 03 fe ff ff       	jmpq   9aae <main+0x180e>
    9cab:	4c 8b 2d 06 4e 24 00 	mov    0x244e06(%rip),%r13        # 24eab8 <dnsmasq_daemon>
    9cb2:	41 bc 01 00 00 00    	mov    $0x1,%r12d
    9cb8:	41 f6 45 06 10       	testb  $0x10,0x6(%r13)
    9cbd:	0f 85 e0 ef ff ff    	jne    8ca3 <main+0xa03>
    9cc3:	e8 b8 c1 ff ff       	callq  5e80 <__errno_location@plt>
    9cc8:	49 8b 8d 08 03 00 00 	mov    0x308(%r13),%rcx
    9ccf:	e9 2d f0 ff ff       	jmpq   8d01 <main+0xa61>
    9cd4:	48 8b 7c 24 18       	mov    0x18(%rsp),%rdi
    9cd9:	48 85 ff             	test   %rdi,%rdi
    9cdc:	0f 84 e8 e9 ff ff    	je     86ca <main+0x42a>
    9ce2:	41 8b b5 b0 06 00 00 	mov    0x6b0(%r13),%esi
    9ce9:	e8 72 b3 02 00       	callq  35060 <bindtodevice>
    9cee:	c7 04 24 01 00 00 00 	movl   $0x1,(%rsp)
    9cf5:	e9 96 ec ff ff       	jmpq   8990 <main+0x6f0>
    9cfa:	4c 8b 2d b7 4d 24 00 	mov    0x244db7(%rip),%r13        # 24eab8 <dnsmasq_daemon>
    9d01:	e9 a1 f0 ff ff       	jmpq   8da7 <main+0xb07>
    9d06:	48 8b 7a 18          	mov    0x18(%rdx),%rdi
    9d0a:	e8 61 65 01 00       	callq  20270 <reload_servers>
    9d0f:	48 8b 05 a2 4d 24 00 	mov    0x244da2(%rip),%rax        # 24eab8 <dnsmasq_daemon>
    9d16:	48 83 78 48 00       	cmpq   $0x0,0x48(%rax)
    9d1b:	0f 84 13 f9 ff ff    	je     9634 <main+0x1394>
    9d21:	e9 09 f9 ff ff       	jmpq   962f <main+0x138f>
    9d26:	48 8d 7c 24 4c       	lea    0x4c(%rsp),%rdi
    9d2b:	31 f6                	xor    %esi,%esi
    9d2d:	e8 7e 7e 00 00       	callq  11bb0 <safe_pipe>
    9d32:	e8 19 c9 ff ff       	callq  6650 <fork@plt>
    9d37:	83 f8 ff             	cmp    $0xffffffff,%eax
    9d3a:	41 89 c5             	mov    %eax,%r13d
    9d3d:	74 40                	je     9d7f <main+0x1adf>
    9d3f:	85 c0                	test   %eax,%eax
    9d41:	75 52                	jne    9d95 <main+0x1af5>
    9d43:	8b 7c 24 4c          	mov    0x4c(%rsp),%edi
    9d47:	e8 34 c4 ff ff       	callq  6180 <close@plt>
    9d4c:	48 63 f8             	movslq %eax,%rdi
    9d4f:	e8 3c 88 00 00       	callq  12590 <retry_send>
    9d54:	85 c0                	test   %eax,%eax
    9d56:	75 eb                	jne    9d43 <main+0x1aa3>
    9d58:	e8 53 c4 ff ff       	callq  61b0 <setsid@plt>
    9d5d:	e8 ee c8 ff ff       	callq  6650 <fork@plt>
    9d62:	83 f8 ff             	cmp    $0xffffffff,%eax
    9d65:	0f 84 f4 01 00 00    	je     9f5f <main+0x1cbf>
    9d6b:	85 c0                	test   %eax,%eax
    9d6d:	0f 85 01 ec ff ff    	jne    8974 <main+0x6d4>
    9d73:	4c 8b 2d 3e 4d 24 00 	mov    0x244d3e(%rip),%r13        # 24eab8 <dnsmasq_daemon>
    9d7a:	e9 24 eb ff ff       	jmpq   88a3 <main+0x603>
    9d7f:	e8 fc c0 ff ff       	callq  5e80 <__errno_location@plt>
    9d84:	8b 10                	mov    (%rax),%edx
    9d86:	31 c9                	xor    %ecx,%ecx
    9d88:	be 12 00 00 00       	mov    $0x12,%esi
    9d8d:	44 89 ef             	mov    %r13d,%edi
    9d90:	e8 8b 71 01 00       	callq  20f20 <send_event>
    9d95:	8b 7c 24 50          	mov    0x50(%rsp),%edi
    9d99:	e8 e2 c3 ff ff       	callq  6180 <close@plt>
    9d9e:	48 63 f8             	movslq %eax,%rdi
    9da1:	e8 ea 87 00 00       	callq  12590 <retry_send>
    9da6:	85 c0                	test   %eax,%eax
    9da8:	75 eb                	jne    9d95 <main+0x1af5>
    9daa:	48 8d 5c 24 54       	lea    0x54(%rsp),%rbx
    9daf:	8b 7c 24 4c          	mov    0x4c(%rsp),%edi
    9db3:	48 8d 54 24 38       	lea    0x38(%rsp),%rdx
    9db8:	48 89 de             	mov    %rbx,%rsi
    9dbb:	e8 d0 70 01 00       	callq  20e90 <read_event>
    9dc0:	85 c0                	test   %eax,%eax
    9dc2:	0f 84 ac eb ff ff    	je     8974 <main+0x6d4>
    9dc8:	48 8b 74 24 38       	mov    0x38(%rsp),%rsi
    9dcd:	48 89 df             	mov    %rbx,%rdi
    9dd0:	e8 3b 68 01 00       	callq  20610 <fatal_event>
    9dd5:	e9 9a eb ff ff       	jmpq   8974 <main+0x6d4>
    9dda:	48 8d 3d af 82 03 00 	lea    0x382af(%rip),%rdi        # 42090 <meta+0x9b0>
    9de1:	ba 05 00 00 00       	mov    $0x5,%edx
    9de6:	31 f6                	xor    %esi,%esi
    9de8:	e8 d3 42 02 00       	callq  2e0c0 <die>
    9ded:	e9 9c ea ff ff       	jmpq   888e <main+0x5ee>
    9df2:	4d 8b b5 c0 00 00 00 	mov    0xc0(%r13),%r14
    9df9:	e9 2f ee ff ff       	jmpq   8c2d <main+0x98d>
    9dfe:	45 31 e4             	xor    %r12d,%r12d
    9e01:	e9 9d ee ff ff       	jmpq   8ca3 <main+0xa03>
    9e06:	48 85 c0             	test   %rax,%rax
    9e09:	c7 04 24 00 00 00 00 	movl   $0x0,(%rsp)
    9e10:	48 89 c7             	mov    %rax,%rdi
    9e13:	0f 84 92 e8 ff ff    	je     86ab <main+0x40b>
    9e19:	41 8b b5 38 06 00 00 	mov    0x638(%r13),%esi
    9e20:	e8 3b b2 02 00       	callq  35060 <bindtodevice>
    9e25:	4c 8b 2d 8c 4c 24 00 	mov    0x244c8c(%rip),%r13        # 24eab8 <dnsmasq_daemon>
    9e2c:	41 83 bd 8c 02 00 00 	cmpl   $0x0,0x28c(%r13)
    9e33:	00 
    9e34:	0f 85 52 e8 ff ff    	jne    868c <main+0x3ec>
    9e3a:	c7 04 24 01 00 00 00 	movl   $0x1,(%rsp)
    9e41:	e9 65 e8 ff ff       	jmpq   86ab <main+0x40b>
    9e46:	ba 05 00 00 00       	mov    $0x5,%edx
    9e4b:	e9 da f2 ff ff       	jmpq   912a <main+0xe8a>
    9e50:	e8 6b 53 01 00       	callq  1f1c0 <warn_wild_labels>
    9e55:	e9 00 f0 ff ff       	jmpq   8e5a <main+0xbba>
    9e5a:	be 02 00 00 00       	mov    $0x2,%esi
    9e5f:	4c 89 e7             	mov    %r12,%rdi
    9e62:	31 c0                	xor    %eax,%eax
    9e64:	e8 17 c6 ff ff       	callq  6480 <open64@plt>
    9e69:	e9 a3 e5 ff ff       	jmpq   8411 <main+0x171>
    9e6e:	48 8d 35 bb 82 03 00 	lea    0x382bb(%rip),%rsi        # 42130 <meta+0xa50>
    9e75:	bf 06 00 00 00       	mov    $0x6,%edi
    9e7a:	31 c0                	xor    %eax,%eax
    9e7c:	e8 5f 3a 02 00       	callq  2d8e0 <my_syslog>
    9e81:	e9 69 ef ff ff       	jmpq   8def <main+0xb4f>
    9e86:	49 83 bd 08 02 00 00 	cmpq   $0x0,0x208(%r13)
    9e8d:	00 
    9e8e:	0f 85 70 fb ff ff    	jne    9a04 <main+0x1764>
    9e94:	e9 58 e5 ff ff       	jmpq   83f1 <main+0x151>
    9e99:	4d 85 e4             	test   %r12,%r12
    9e9c:	0f 84 f5 fa ff ff    	je     9997 <main+0x16f7>
    9ea2:	41 8b 7c 24 14       	mov    0x14(%r12),%edi
    9ea7:	e8 e4 c1 ff ff       	callq  6090 <getgrgid@plt>
    9eac:	48 85 c0             	test   %rax,%rax
    9eaf:	48 89 44 24 08       	mov    %rax,0x8(%rsp)
    9eb4:	0f 84 5c e9 ff ff    	je     8816 <main+0x576>
    9eba:	e9 69 fd ff ff       	jmpq   9c28 <main+0x1988>
    9ebf:	b8 02 00 00 00       	mov    $0x2,%eax
    9ec4:	e9 e5 fb ff ff       	jmpq   9aae <main+0x180e>
    9ec9:	e8 b2 bf ff ff       	callq  5e80 <__errno_location@plt>
    9ece:	48 8b 15 e3 4b 24 00 	mov    0x244be3(%rip),%rdx        # 24eab8 <dnsmasq_daemon>
    9ed5:	8b 7c 24 50          	mov    0x50(%rsp),%edi
    9ed9:	be 0f 00 00 00       	mov    $0xf,%esi
    9ede:	48 8b 8a c8 00 00 00 	mov    0xc8(%rdx),%rcx
    9ee5:	8b 10                	mov    (%rax),%edx
    9ee7:	e8 34 70 01 00       	callq  20f20 <send_event>
    9eec:	31 ff                	xor    %edi,%edi
    9eee:	e8 cd bf ff ff       	callq  5ec0 <_exit@plt>
    9ef3:	e8 88 bf ff ff       	callq  5e80 <__errno_location@plt>
    9ef8:	8b 10                	mov    (%rax),%edx
    9efa:	85 d2                	test   %edx,%edx
    9efc:	0f 84 ab ec ff ff    	je     8bad <main+0x90d>
    9f02:	31 c9                	xor    %ecx,%ecx
    9f04:	e9 01 ed ff ff       	jmpq   8c0a <main+0x96a>
    9f09:	e8 72 bf ff ff       	callq  5e80 <__errno_location@plt>
    9f0e:	48 8b 15 a3 4b 24 00 	mov    0x244ba3(%rip),%rdx        # 24eab8 <dnsmasq_daemon>
    9f15:	8b 7c 24 50          	mov    0x50(%rsp),%edi
    9f19:	be 0b 00 00 00       	mov    $0xb,%esi
    9f1e:	48 8b 8a c0 00 00 00 	mov    0xc0(%rdx),%rcx
    9f25:	8b 10                	mov    (%rax),%edx
    9f27:	e8 f4 6f 01 00       	callq  20f20 <send_event>
    9f2c:	31 ff                	xor    %edi,%edi
    9f2e:	e8 8d bf ff ff       	callq  5ec0 <_exit@plt>
    9f33:	48 b8 00 30 00 00 00 	movabs $0x300000003000,%rax
    9f3a:	30 00 00 
    9f3d:	49 89 06             	mov    %rax,(%r14)
    9f40:	e9 a2 ec ff ff       	jmpq   8be7 <main+0x947>
    9f45:	48 b8 80 34 00 00 80 	movabs $0x348000003480,%rax
    9f4c:	34 00 00 
    9f4f:	41 c7 46 08 80 34 00 	movl   $0x3480,0x8(%r14)
    9f56:	00 
    9f57:	49 89 06             	mov    %rax,(%r14)
    9f5a:	e9 17 ec ff ff       	jmpq   8b76 <main+0x8d6>
    9f5f:	e8 1c bf ff ff       	callq  5e80 <__errno_location@plt>
    9f64:	8b 7c 24 50          	mov    0x50(%rsp),%edi
    9f68:	8b 10                	mov    (%rax),%edx
    9f6a:	31 c9                	xor    %ecx,%ecx
    9f6c:	be 12 00 00 00       	mov    $0x12,%esi
    9f71:	e8 aa 6f 01 00       	callq  20f20 <send_event>
    9f76:	e9 f9 e9 ff ff       	jmpq   8974 <main+0x6d4>
    9f7b:	0f 1f 44 00 00       	nopl   0x0(%rax,%rax,1)

0000000000009f80 <_start>:
    9f80:	31 ed                	xor    %ebp,%ebp
    9f82:	49 89 d1             	mov    %rdx,%r9
    9f85:	5e                   	pop    %rsi
    9f86:	48 89 e2             	mov    %rsp,%rdx
    9f89:	48 83 e4 f0          	and    $0xfffffffffffffff0,%rsp
    9f8d:	50                   	push   %rax
    9f8e:	54                   	push   %rsp
    9f8f:	4c 8d 05 ba 39 03 00 	lea    0x339ba(%rip),%r8        # 3d950 <__libc_csu_fini>
    9f96:	48 8d 0d 43 39 03 00 	lea    0x33943(%rip),%rcx        # 3d8e0 <__libc_csu_init>
    9f9d:	48 8d 3d fc e2 ff ff 	lea    -0x1d04(%rip),%rdi        # 82a0 <main>
    9fa4:	ff 15 26 30 24 00    	callq  *0x243026(%rip)        # 24cfd0 <__libc_start_main@GLIBC_2.2.5>
    9faa:	f4                   	hlt    
    9fab:	0f 1f 44 00 00       	nopl   0x0(%rax,%rax,1)

0000000000009fb0 <deregister_tm_clones>:
    9fb0:	48 8d 3d c1 46 24 00 	lea    0x2446c1(%rip),%rdi        # 24e678 <__TMC_END__>
    9fb7:	55                   	push   %rbp
    9fb8:	48 8d 05 b9 46 24 00 	lea    0x2446b9(%rip),%rax        # 24e678 <__TMC_END__>
    9fbf:	48 39 f8             	cmp    %rdi,%rax
    9fc2:	48 89 e5             	mov    %rsp,%rbp
    9fc5:	74 19                	je     9fe0 <deregister_tm_clones+0x30>
    9fc7:	48 8b 05 fa 2f 24 00 	mov    0x242ffa(%rip),%rax        # 24cfc8 <_ITM_deregisterTMCloneTable>
    9fce:	48 85 c0             	test   %rax,%rax
    9fd1:	74 0d                	je     9fe0 <deregister_tm_clones+0x30>
    9fd3:	5d                   	pop    %rbp
    9fd4:	ff e0                	jmpq   *%rax
    9fd6:	66 2e 0f 1f 84 00 00 	nopw   %cs:0x0(%rax,%rax,1)
    9fdd:	00 00 00 
    9fe0:	5d                   	pop    %rbp
    9fe1:	c3                   	retq   
    9fe2:	0f 1f 40 00          	nopl   0x0(%rax)
    9fe6:	66 2e 0f 1f 84 00 00 	nopw   %cs:0x0(%rax,%rax,1)
    9fed:	00 00 00 

0000000000009ff0 <register_tm_clones>:
    9ff0:	48 8d 3d 81 46 24 00 	lea    0x244681(%rip),%rdi        # 24e678 <__TMC_END__>
    9ff7:	48 8d 35 7a 46 24 00 	lea    0x24467a(%rip),%rsi        # 24e678 <__TMC_END__>
    9ffe:	55                   	push   %rbp
    9fff:	48 29 fe             	sub    %rdi,%rsi
    a002:	48 89 e5             	mov    %rsp,%rbp
    a005:	48 c1 fe 03          	sar    $0x3,%rsi
    a009:	48 89 f0             	mov    %rsi,%rax
    a00c:	48 c1 e8 3f          	shr    $0x3f,%rax
    a010:	48 01 c6             	add    %rax,%rsi
    a013:	48 d1 fe             	sar    %rsi
    a016:	74 18                	je     a030 <register_tm_clones+0x40>
    a018:	48 8b 05 c1 2f 24 00 	mov    0x242fc1(%rip),%rax        # 24cfe0 <_ITM_registerTMCloneTable>
    a01f:	48 85 c0             	test   %rax,%rax
    a022:	74 0c                	je     a030 <register_tm_clones+0x40>
    a024:	5d                   	pop    %rbp
    a025:	ff e0                	jmpq   *%rax
    a027:	66 0f 1f 84 00 00 00 	nopw   0x0(%rax,%rax,1)
    a02e:	00 00 
    a030:	5d                   	pop    %rbp
    a031:	c3                   	retq   
    a032:	0f 1f 40 00          	nopl   0x0(%rax)
    a036:	66 2e 0f 1f 84 00 00 	nopw   %cs:0x0(%rax,%rax,1)
    a03d:	00 00 00 

000000000000a040 <__do_global_dtors_aux>:
    a040:	80 3d 81 46 24 00 00 	cmpb   $0x0,0x244681(%rip)        # 24e6c8 <completed.7698>
    a047:	75 2f                	jne    a078 <__do_global_dtors_aux+0x38>
    a049:	48 83 3d 97 2f 24 00 	cmpq   $0x0,0x242f97(%rip)        # 24cfe8 <__cxa_finalize@GLIBC_2.2.5>
    a050:	00 
    a051:	55                   	push   %rbp
    a052:	48 89 e5             	mov    %rsp,%rbp
    a055:	74 0c                	je     a063 <__do_global_dtors_aux+0x23>
    a057:	48 8b 3d aa 2f 24 00 	mov    0x242faa(%rip),%rdi        # 24d008 <__dso_handle>
    a05e:	e8 4d c6 ff ff       	callq  66b0 <__cxa_finalize@plt>
    a063:	e8 48 ff ff ff       	callq  9fb0 <deregister_tm_clones>
    a068:	c6 05 59 46 24 00 01 	movb   $0x1,0x244659(%rip)        # 24e6c8 <completed.7698>
    a06f:	5d                   	pop    %rbp
    a070:	c3                   	retq   
    a071:	0f 1f 80 00 00 00 00 	nopl   0x0(%rax)
    a078:	f3 c3                	repz retq 
    a07a:	66 0f 1f 44 00 00    	nopw   0x0(%rax,%rax,1)

000000000000a080 <frame_dummy>:
    a080:	55                   	push   %rbp
    a081:	48 89 e5             	mov    %rsp,%rbp
    a084:	5d                   	pop    %rbp
    a085:	e9 66 ff ff ff       	jmpq   9ff0 <register_tm_clones>
    a08a:	66 0f 1f 44 00 00    	nopw   0x0(%rax,%rax,1)

000000000000a090 <hash_bucket>:
    a090:	0f b6 0f             	movzbl (%rdi),%ecx
    a093:	48 8d 77 01          	lea    0x1(%rdi),%rsi
    a097:	84 c9                	test   %cl,%cl
    a099:	74 65                	je     a100 <hash_bucket+0x70>
    a09b:	4c 8d 05 de 0c 24 00 	lea    0x240cde(%rip),%r8        # 24ad80 <typestr>
    a0a2:	b8 35 1f 00 00       	mov    $0x1f35,%eax
    a0a7:	66 0f 1f 84 00 00 00 	nopw   0x0(%rax,%rax,1)
    a0ae:	00 00 
    a0b0:	8d 79 bf             	lea    -0x41(%rcx),%edi
    a0b3:	8d 51 20             	lea    0x20(%rcx),%edx
    a0b6:	83 ff 1a             	cmp    $0x1a,%edi
    a0b9:	89 c7                	mov    %eax,%edi
    a0bb:	0f 42 ca             	cmovb  %edx,%ecx
    a0be:	48 83 c6 01          	add    $0x1,%rsi
    a0c2:	c1 c7 07             	rol    $0x7,%edi
    a0c5:	8d 14 01             	lea    (%rcx,%rax,1),%edx
    a0c8:	83 e2 3f             	and    $0x3f,%edx
    a0cb:	41 0f b6 04 10       	movzbl (%r8,%rdx,1),%eax
    a0d0:	31 c8                	xor    %ecx,%eax
    a0d2:	0f b6 4e ff          	movzbl -0x1(%rsi),%ecx
    a0d6:	01 f8                	add    %edi,%eax
    a0d8:	84 c9                	test   %cl,%cl
    a0da:	75 d4                	jne    a0b0 <hash_bucket+0x20>
    a0dc:	89 c2                	mov    %eax,%edx
    a0de:	c1 ea 10             	shr    $0x10,%edx
    a0e1:	31 c2                	xor    %eax,%edx
    a0e3:	8b 05 17 46 24 00    	mov    0x244617(%rip),%eax        # 24e700 <hash_size>
    a0e9:	83 e8 01             	sub    $0x1,%eax
    a0ec:	21 d0                	and    %edx,%eax
    a0ee:	48 8b 15 3b 46 24 00 	mov    0x24463b(%rip),%rdx        # 24e730 <hash_table>
    a0f5:	48 8d 04 c2          	lea    (%rdx,%rax,8),%rax
    a0f9:	c3                   	retq   
    a0fa:	66 0f 1f 44 00 00    	nopw   0x0(%rax,%rax,1)
    a100:	ba 35 1f 00 00       	mov    $0x1f35,%edx
    a105:	eb dc                	jmp    a0e3 <hash_bucket+0x53>
    a107:	66 0f 1f 84 00 00 00 	nopw   0x0(%rax,%rax,1)
    a10e:	00 00 

000000000000a110 <cache_hash>:
    a110:	44 0f b7 57 34       	movzwl 0x34(%rdi),%r10d
    a115:	49 89 f9             	mov    %rdi,%r9
    a118:	66 41 f7 c2 00 02    	test   $0x200,%r10w
    a11e:	75 70                	jne    a190 <cache_hash+0x80>
    a120:	41 f6 c2 02          	test   $0x2,%r10b
    a124:	48 8d 7f 38          	lea    0x38(%rdi),%rdi
    a128:	75 66                	jne    a190 <cache_hash+0x80>
    a12a:	e8 61 ff ff ff       	callq  a090 <hash_bucket>
    a12f:	41 f6 c2 04          	test   $0x4,%r10b
    a133:	48 8b 10             	mov    (%rax),%rdx
    a136:	75 0a                	jne    a142 <cache_hash+0x32>
    a138:	48 85 d2             	test   %rdx,%rdx
    a13b:	75 20                	jne    a15d <cache_hash+0x4d>
    a13d:	0f 1f 00             	nopl   (%rax)
    a140:	31 d2                	xor    %edx,%edx
    a142:	49 89 51 10          	mov    %rdx,0x10(%r9)
    a146:	4c 89 08             	mov    %r9,(%rax)
    a149:	c3                   	retq   
    a14a:	66 0f 1f 44 00 00    	nopw   0x0(%rax,%rax,1)
    a150:	48 8d 42 10          	lea    0x10(%rdx),%rax
    a154:	48 8b 52 10          	mov    0x10(%rdx),%rdx
    a158:	48 85 d2             	test   %rdx,%rdx
    a15b:	74 e3                	je     a140 <cache_hash+0x30>
    a15d:	f6 42 34 04          	testb  $0x4,0x34(%rdx)
    a161:	75 ed                	jne    a150 <cache_hash+0x40>
    a163:	41 83 e2 01          	and    $0x1,%r10d
    a167:	75 14                	jne    a17d <cache_hash+0x6d>
    a169:	eb d7                	jmp    a142 <cache_hash+0x32>
    a16b:	0f 1f 44 00 00       	nopl   0x0(%rax,%rax,1)
    a170:	48 8d 42 10          	lea    0x10(%rdx),%rax
    a174:	48 8b 52 10          	mov    0x10(%rdx),%rdx
    a178:	48 85 d2             	test   %rdx,%rdx
    a17b:	74 c5                	je     a142 <cache_hash+0x32>
    a17d:	f6 42 34 01          	testb  $0x1,0x34(%rdx)
    a181:	74 ed                	je     a170 <cache_hash+0x60>
    a183:	49 89 51 10          	mov    %rdx,0x10(%r9)
    a187:	4c 89 08             	mov    %r9,(%rax)
    a18a:	c3                   	retq   
    a18b:	0f 1f 44 00 00       	nopl   0x0(%rax,%rax,1)
    a190:	49 8b 79 38          	mov    0x38(%r9),%rdi
    a194:	eb 94                	jmp    a12a <cache_hash+0x1a>
    a196:	66 2e 0f 1f 84 00 00 	nopw   %cs:0x0(%rax,%rax,1)
    a19d:	00 00 00 

000000000000a1a0 <cache_free>:
    a1a0:	0f b7 57 34          	movzwl 0x34(%rdi),%edx
    a1a4:	89 d0                	mov    %edx,%eax
    a1a6:	83 e0 f3             	and    $0xfffffff3,%eax
    a1a9:	66 89 47 34          	mov    %ax,0x34(%rdi)
    a1ad:	8b 05 49 45 24 00    	mov    0x244549(%rip),%eax        # 24e6fc <uid.8629>
    a1b3:	83 c0 01             	add    $0x1,%eax
    a1b6:	74 58                	je     a210 <cache_free+0x70>
    a1b8:	89 05 3e 45 24 00    	mov    %eax,0x24453e(%rip)        # 24e6fc <uid.8629>
    a1be:	89 47 30             	mov    %eax,0x30(%rdi)
    a1c1:	48 8b 05 70 45 24 00 	mov    0x244570(%rip),%rax        # 24e738 <cache_tail>
    a1c8:	48 85 c0             	test   %rax,%rax
    a1cb:	74 61                	je     a22e <cache_free+0x8e>
    a1cd:	48 89 38             	mov    %rdi,(%rax)
    a1d0:	f6 c6 02             	test   $0x2,%dh
    a1d3:	48 89 47 08          	mov    %rax,0x8(%rdi)
    a1d7:	48 c7 07 00 00 00 00 	movq   $0x0,(%rdi)
    a1de:	48 89 3d 53 45 24 00 	mov    %rdi,0x244553(%rip)        # 24e738 <cache_tail>
    a1e5:	74 1e                	je     a205 <cache_free+0x65>
    a1e7:	48 8b 47 38          	mov    0x38(%rdi),%rax
    a1eb:	48 8b 0d 16 45 24 00 	mov    0x244516(%rip),%rcx        # 24e708 <big_free>
    a1f2:	66 81 e2 f3 fd       	and    $0xfdf3,%dx
    a1f7:	48 89 08             	mov    %rcx,(%rax)
    a1fa:	48 89 05 07 45 24 00 	mov    %rax,0x244507(%rip)        # 24e708 <big_free>
    a201:	66 89 57 34          	mov    %dx,0x34(%rdi)
    a205:	f3 c3                	repz retq 
    a207:	66 0f 1f 84 00 00 00 	nopw   0x0(%rax,%rax,1)
    a20e:	00 00 
    a210:	b8 01 00 00 00       	mov    $0x1,%eax
    a215:	c7 05 dd 44 24 00 01 	movl   $0x1,0x2444dd(%rip)        # 24e6fc <uid.8629>
    a21c:	00 00 00 
    a21f:	89 47 30             	mov    %eax,0x30(%rdi)
    a222:	48 8b 05 0f 45 24 00 	mov    0x24450f(%rip),%rax        # 24e738 <cache_tail>
    a229:	48 85 c0             	test   %rax,%rax
    a22c:	75 9f                	jne    a1cd <cache_free+0x2d>
    a22e:	48 89 3d 0b 45 24 00 	mov    %rdi,0x24450b(%rip)        # 24e740 <cache_head>
    a235:	eb 99                	jmp    a1d0 <cache_free+0x30>
    a237:	66 0f 1f 84 00 00 00 	nopw   0x0(%rax,%rax,1)
    a23e:	00 00 

000000000000a240 <rehash>:
    a240:	89 f8                	mov    %edi,%eax
    a242:	ba 67 66 66 66       	mov    $0x66666667,%edx
    a247:	c1 ff 1f             	sar    $0x1f,%edi
    a24a:	f7 ea                	imul   %edx
    a24c:	41 54                	push   %r12
    a24e:	55                   	push   %rbp
    a24f:	53                   	push   %rbx
    a250:	bb 40 00 00 00       	mov    $0x40,%ebx
    a255:	c1 fa 02             	sar    $0x2,%edx
    a258:	29 fa                	sub    %edi,%edx
    a25a:	83 fa 40             	cmp    $0x40,%edx
    a25d:	7e 07                	jle    a266 <rehash+0x26>
    a25f:	90                   	nop
    a260:	01 db                	add    %ebx,%ebx
    a262:	39 d3                	cmp    %edx,%ebx
    a264:	7c fa                	jl     a260 <rehash+0x20>
    a266:	48 83 3d c2 44 24 00 	cmpq   $0x0,0x2444c2(%rip)        # 24e730 <hash_table>
    a26d:	00 
    a26e:	0f 84 bc 00 00 00    	je     a330 <rehash+0xf0>
    a274:	39 1d 86 44 24 00    	cmp    %ebx,0x244486(%rip)        # 24e700 <hash_size>
    a27a:	7c 0c                	jl     a288 <rehash+0x48>
    a27c:	5b                   	pop    %rbx
    a27d:	5d                   	pop    %rbp
    a27e:	41 5c                	pop    %r12
    a280:	c3                   	retq   
    a281:	0f 1f 80 00 00 00 00 	nopl   0x0(%rax)
    a288:	48 63 fb             	movslq %ebx,%rdi
    a28b:	48 c1 e7 03          	shl    $0x3,%rdi
    a28f:	e8 7c 79 00 00       	callq  11c10 <whine_malloc>
    a294:	48 85 c0             	test   %rax,%rax
    a297:	74 e3                	je     a27c <rehash+0x3c>
    a299:	8d 4b ff             	lea    -0x1(%rbx),%ecx
    a29c:	48 89 c2             	mov    %rax,%rdx
    a29f:	48 8d 4c c8 08       	lea    0x8(%rax,%rcx,8),%rcx
    a2a4:	0f 1f 40 00          	nopl   0x0(%rax)
    a2a8:	48 c7 02 00 00 00 00 	movq   $0x0,(%rdx)
    a2af:	48 83 c2 08          	add    $0x8,%rdx
    a2b3:	48 39 ca             	cmp    %rcx,%rdx
    a2b6:	75 f0                	jne    a2a8 <rehash+0x68>
    a2b8:	4c 8b 25 71 44 24 00 	mov    0x244471(%rip),%r12        # 24e730 <hash_table>
    a2bf:	8b 15 3b 44 24 00    	mov    0x24443b(%rip),%edx        # 24e700 <hash_size>
    a2c5:	48 89 05 64 44 24 00 	mov    %rax,0x244464(%rip)        # 24e730 <hash_table>
    a2cc:	89 1d 2e 44 24 00    	mov    %ebx,0x24442e(%rip)        # 24e700 <hash_size>
    a2d2:	4d 85 e4             	test   %r12,%r12
    a2d5:	74 a5                	je     a27c <rehash+0x3c>
    a2d7:	85 d2                	test   %edx,%edx
    a2d9:	7e 3f                	jle    a31a <rehash+0xda>
    a2db:	8d 42 ff             	lea    -0x1(%rdx),%eax
    a2de:	4c 89 e3             	mov    %r12,%rbx
    a2e1:	49 8d 6c c4 08       	lea    0x8(%r12,%rax,8),%rbp
    a2e6:	66 2e 0f 1f 84 00 00 	nopw   %cs:0x0(%rax,%rax,1)
    a2ed:	00 00 00 
    a2f0:	48 8b 3b             	mov    (%rbx),%rdi
    a2f3:	48 85 ff             	test   %rdi,%rdi
    a2f6:	74 19                	je     a311 <rehash+0xd1>
    a2f8:	0f 1f 84 00 00 00 00 	nopl   0x0(%rax,%rax,1)
    a2ff:	00 
    a300:	4c 8b 5f 10          	mov    0x10(%rdi),%r11
    a304:	e8 07 fe ff ff       	callq  a110 <cache_hash>
    a309:	4d 85 db             	test   %r11,%r11
    a30c:	4c 89 df             	mov    %r11,%rdi
    a30f:	75 ef                	jne    a300 <rehash+0xc0>
    a311:	48 83 c3 08          	add    $0x8,%rbx
    a315:	48 39 eb             	cmp    %rbp,%rbx
    a318:	75 d6                	jne    a2f0 <rehash+0xb0>
    a31a:	5b                   	pop    %rbx
    a31b:	4c 89 e7             	mov    %r12,%rdi
    a31e:	5d                   	pop    %rbp
    a31f:	41 5c                	pop    %r12
    a321:	e9 0a bb ff ff       	jmpq   5e30 <free@plt>
    a326:	66 2e 0f 1f 84 00 00 	nopw   %cs:0x0(%rax,%rax,1)
    a32d:	00 00 00 
    a330:	48 63 fb             	movslq %ebx,%rdi
    a333:	48 c1 e7 03          	shl    $0x3,%rdi
    a337:	e8 24 78 00 00       	callq  11b60 <safe_malloc>
    a33c:	e9 58 ff ff ff       	jmpq   a299 <rehash+0x59>
    a341:	0f 1f 44 00 00       	nopl   0x0(%rax,%rax,1)
    a346:	66 2e 0f 1f 84 00 00 	nopw   %cs:0x0(%rax,%rax,1)
    a34d:	00 00 00 

000000000000a350 <add_hosts_cname>:
    a350:	48 8b 05 61 47 24 00 	mov    0x244761(%rip),%rax        # 24eab8 <dnsmasq_daemon>
    a357:	41 54                	push   %r12
    a359:	55                   	push   %rbp
    a35a:	53                   	push   %rbx
    a35b:	48 8b 98 88 00 00 00 	mov    0x88(%rax),%rbx
    a362:	48 85 db             	test   %rbx,%rbx
    a365:	74 3a                	je     a3a1 <add_hosts_cname+0x51>
    a367:	4c 8d 67 38          	lea    0x38(%rdi),%r12
    a36b:	48 89 fd             	mov    %rdi,%rbp
    a36e:	48 8b 43 08          	mov    0x8(%rbx),%rax
    a372:	80 78 01 2a          	cmpb   $0x2a,0x1(%rax)
    a376:	74 20                	je     a398 <add_hosts_cname+0x48>
    a378:	0f b7 45 34          	movzwl 0x34(%rbp),%eax
    a37c:	48 8b 73 10          	mov    0x10(%rbx),%rsi
    a380:	f6 c4 02             	test   $0x2,%ah
    a383:	75 2b                	jne    a3b0 <add_hosts_cname+0x60>
    a385:	a8 02                	test   $0x2,%al
    a387:	4c 89 e7             	mov    %r12,%rdi
    a38a:	75 24                	jne    a3b0 <add_hosts_cname+0x60>
    a38c:	e8 df 79 00 00       	callq  11d70 <hostname_isequal>
    a391:	85 c0                	test   %eax,%eax
    a393:	75 28                	jne    a3bd <add_hosts_cname+0x6d>
    a395:	0f 1f 00             	nopl   (%rax)
    a398:	48 8b 5b 18          	mov    0x18(%rbx),%rbx
    a39c:	48 85 db             	test   %rbx,%rbx
    a39f:	75 cd                	jne    a36e <add_hosts_cname+0x1e>
    a3a1:	5b                   	pop    %rbx
    a3a2:	5d                   	pop    %rbp
    a3a3:	41 5c                	pop    %r12
    a3a5:	c3                   	retq   
    a3a6:	66 2e 0f 1f 84 00 00 	nopw   %cs:0x0(%rax,%rax,1)
    a3ad:	00 00 00 
    a3b0:	48 8b 7d 38          	mov    0x38(%rbp),%rdi
    a3b4:	e8 b7 79 00 00       	callq  11d70 <hostname_isequal>
    a3b9:	85 c0                	test   %eax,%eax
    a3bb:	74 db                	je     a398 <add_hosts_cname+0x48>
    a3bd:	bf 70 00 00 00       	mov    $0x70,%edi
    a3c2:	e8 49 78 00 00       	callq  11c10 <whine_malloc>
    a3c7:	48 85 c0             	test   %rax,%rax
    a3ca:	49 89 c3             	mov    %rax,%r11
    a3cd:	74 c9                	je     a398 <add_hosts_cname+0x48>
    a3cf:	b8 0b 28 00 00       	mov    $0x280b,%eax
    a3d4:	66 41 89 43 34       	mov    %ax,0x34(%r11)
    a3d9:	48 63 03             	movslq (%rbx),%rax
    a3dc:	49 89 43 28          	mov    %rax,0x28(%r11)
    a3e0:	48 8b 43 08          	mov    0x8(%rbx),%rax
    a3e4:	49 89 6b 18          	mov    %rbp,0x18(%r11)
    a3e8:	49 89 43 38          	mov    %rax,0x38(%r11)
    a3ec:	8b 45 30             	mov    0x30(%rbp),%eax
